ARM GAS  C:\Users\student\AppData\Local\Temp\cc4gFqWM.s 			page 1


   1              		.syntax unified
   2              		.cpu cortex-m3
   3              		.fpu softvfp
   4              		.eabi_attribute 20, 1
   5              		.eabi_attribute 21, 1
   6              		.eabi_attribute 23, 3
   7              		.eabi_attribute 24, 1
   8              		.eabi_attribute 25, 1
   9              		.eabi_attribute 26, 1
  10              		.eabi_attribute 30, 1
  11              		.eabi_attribute 34, 1
  12              		.eabi_attribute 18, 4
  13              		.thumb
  14              		.file	"cyfitter_cfg.c"
  15              		.text
  16              	.Ltext0:
  17              		.cfi_sections	.debug_frame
  18              		.section	.text.CyClockStartupError,"ax",%progbits
  19              		.align	2
  20              		.thumb
  21              		.thumb_func
  22              		.type	CyClockStartupError, %function
  23              	CyClockStartupError:
  24              	.LFB3:
  25              		.file 1 ".\\Generated_Source\\PSoC5\\cyfitter_cfg.c"
   1:.\Generated_Source\PSoC5/cyfitter_cfg.c **** /*******************************************************************************
   2:.\Generated_Source\PSoC5/cyfitter_cfg.c **** * File Name: cyfitter_cfg.c
   3:.\Generated_Source\PSoC5/cyfitter_cfg.c **** * 
   4:.\Generated_Source\PSoC5/cyfitter_cfg.c **** * PSoC Creator  3.3 CP3
   5:.\Generated_Source\PSoC5/cyfitter_cfg.c **** *
   6:.\Generated_Source\PSoC5/cyfitter_cfg.c **** * Description:
   7:.\Generated_Source\PSoC5/cyfitter_cfg.c **** * This file contains device initialization code.
   8:.\Generated_Source\PSoC5/cyfitter_cfg.c **** * Except for the user defined sections in CyClockStartupError(), this file should not be modified.
   9:.\Generated_Source\PSoC5/cyfitter_cfg.c **** * This file is automatically generated by PSoC Creator.
  10:.\Generated_Source\PSoC5/cyfitter_cfg.c **** *
  11:.\Generated_Source\PSoC5/cyfitter_cfg.c **** ********************************************************************************
  12:.\Generated_Source\PSoC5/cyfitter_cfg.c **** * Copyright (c) 2007-2016 Cypress Semiconductor.  All rights reserved.
  13:.\Generated_Source\PSoC5/cyfitter_cfg.c **** * You may use this file only in accordance with the license, terms, conditions, 
  14:.\Generated_Source\PSoC5/cyfitter_cfg.c **** * disclaimers, and limitations in the end user license agreement accompanying 
  15:.\Generated_Source\PSoC5/cyfitter_cfg.c **** * the software package with which this file was provided.
  16:.\Generated_Source\PSoC5/cyfitter_cfg.c **** ********************************************************************************/
  17:.\Generated_Source\PSoC5/cyfitter_cfg.c **** 
  18:.\Generated_Source\PSoC5/cyfitter_cfg.c **** #include <string.h>
  19:.\Generated_Source\PSoC5/cyfitter_cfg.c **** #include "cytypes.h"
  20:.\Generated_Source\PSoC5/cyfitter_cfg.c **** #include "cydevice_trm.h"
  21:.\Generated_Source\PSoC5/cyfitter_cfg.c **** #include "cyfitter.h"
  22:.\Generated_Source\PSoC5/cyfitter_cfg.c **** #include "CyLib.h"
  23:.\Generated_Source\PSoC5/cyfitter_cfg.c **** #include "cyfitter_cfg.h"
  24:.\Generated_Source\PSoC5/cyfitter_cfg.c **** 
  25:.\Generated_Source\PSoC5/cyfitter_cfg.c **** #define CY_NEED_CYCLOCKSTARTUPERROR 1
  26:.\Generated_Source\PSoC5/cyfitter_cfg.c **** 
  27:.\Generated_Source\PSoC5/cyfitter_cfg.c **** 
  28:.\Generated_Source\PSoC5/cyfitter_cfg.c **** #if defined(__GNUC__) || defined(__ARMCC_VERSION)
  29:.\Generated_Source\PSoC5/cyfitter_cfg.c ****     #define CYPACKED 
  30:.\Generated_Source\PSoC5/cyfitter_cfg.c ****     #define CYPACKED_ATTR __attribute__ ((packed))
  31:.\Generated_Source\PSoC5/cyfitter_cfg.c ****     #define CYALIGNED __attribute__ ((aligned))
  32:.\Generated_Source\PSoC5/cyfitter_cfg.c ****     #define CY_CFG_UNUSED __attribute__ ((unused))
ARM GAS  C:\Users\student\AppData\Local\Temp\cc4gFqWM.s 			page 2


  33:.\Generated_Source\PSoC5/cyfitter_cfg.c ****     #ifndef CY_CFG_SECTION
  34:.\Generated_Source\PSoC5/cyfitter_cfg.c ****         #define CY_CFG_SECTION __attribute__ ((section(".psocinit")))
  35:.\Generated_Source\PSoC5/cyfitter_cfg.c ****     #endif
  36:.\Generated_Source\PSoC5/cyfitter_cfg.c ****     
  37:.\Generated_Source\PSoC5/cyfitter_cfg.c ****     #if defined(__ARMCC_VERSION)
  38:.\Generated_Source\PSoC5/cyfitter_cfg.c ****         #define CY_CFG_MEMORY_BARRIER() __memory_changed()
  39:.\Generated_Source\PSoC5/cyfitter_cfg.c ****     #else
  40:.\Generated_Source\PSoC5/cyfitter_cfg.c ****         #define CY_CFG_MEMORY_BARRIER() __sync_synchronize()
  41:.\Generated_Source\PSoC5/cyfitter_cfg.c ****     #endif
  42:.\Generated_Source\PSoC5/cyfitter_cfg.c ****     
  43:.\Generated_Source\PSoC5/cyfitter_cfg.c **** #elif defined(__ICCARM__)
  44:.\Generated_Source\PSoC5/cyfitter_cfg.c ****     #include <intrinsics.h>
  45:.\Generated_Source\PSoC5/cyfitter_cfg.c **** 
  46:.\Generated_Source\PSoC5/cyfitter_cfg.c ****     #define CYPACKED __packed
  47:.\Generated_Source\PSoC5/cyfitter_cfg.c ****     #define CYPACKED_ATTR 
  48:.\Generated_Source\PSoC5/cyfitter_cfg.c ****     #define CYALIGNED _Pragma("data_alignment=4")
  49:.\Generated_Source\PSoC5/cyfitter_cfg.c ****     #define CY_CFG_UNUSED _Pragma("diag_suppress=Pe177")
  50:.\Generated_Source\PSoC5/cyfitter_cfg.c ****     #define CY_CFG_SECTION _Pragma("location=\".psocinit\"")
  51:.\Generated_Source\PSoC5/cyfitter_cfg.c ****     
  52:.\Generated_Source\PSoC5/cyfitter_cfg.c ****     #define CY_CFG_MEMORY_BARRIER() __DMB()
  53:.\Generated_Source\PSoC5/cyfitter_cfg.c ****     
  54:.\Generated_Source\PSoC5/cyfitter_cfg.c **** #else
  55:.\Generated_Source\PSoC5/cyfitter_cfg.c ****     #error Unsupported toolchain
  56:.\Generated_Source\PSoC5/cyfitter_cfg.c **** #endif
  57:.\Generated_Source\PSoC5/cyfitter_cfg.c **** 
  58:.\Generated_Source\PSoC5/cyfitter_cfg.c **** 
  59:.\Generated_Source\PSoC5/cyfitter_cfg.c **** CY_CFG_UNUSED
  60:.\Generated_Source\PSoC5/cyfitter_cfg.c **** static void CYMEMZERO(void *s, size_t n);
  61:.\Generated_Source\PSoC5/cyfitter_cfg.c **** CY_CFG_UNUSED
  62:.\Generated_Source\PSoC5/cyfitter_cfg.c **** static void CYMEMZERO(void *s, size_t n)
  63:.\Generated_Source\PSoC5/cyfitter_cfg.c **** {
  64:.\Generated_Source\PSoC5/cyfitter_cfg.c **** 	(void)memset(s, 0, n);
  65:.\Generated_Source\PSoC5/cyfitter_cfg.c **** }
  66:.\Generated_Source\PSoC5/cyfitter_cfg.c **** CY_CFG_UNUSED
  67:.\Generated_Source\PSoC5/cyfitter_cfg.c **** static void CYCONFIGCPY(void *dest, const void *src, size_t n);
  68:.\Generated_Source\PSoC5/cyfitter_cfg.c **** CY_CFG_UNUSED
  69:.\Generated_Source\PSoC5/cyfitter_cfg.c **** static void CYCONFIGCPY(void *dest, const void *src, size_t n)
  70:.\Generated_Source\PSoC5/cyfitter_cfg.c **** {
  71:.\Generated_Source\PSoC5/cyfitter_cfg.c **** 	(void)memcpy(dest, src, n);
  72:.\Generated_Source\PSoC5/cyfitter_cfg.c **** }
  73:.\Generated_Source\PSoC5/cyfitter_cfg.c **** CY_CFG_UNUSED
  74:.\Generated_Source\PSoC5/cyfitter_cfg.c **** static void CYCONFIGCPYCODE(void *dest, const void *src, size_t n);
  75:.\Generated_Source\PSoC5/cyfitter_cfg.c **** CY_CFG_UNUSED
  76:.\Generated_Source\PSoC5/cyfitter_cfg.c **** static void CYCONFIGCPYCODE(void *dest, const void *src, size_t n)
  77:.\Generated_Source\PSoC5/cyfitter_cfg.c **** {
  78:.\Generated_Source\PSoC5/cyfitter_cfg.c **** 	(void)memcpy(dest, src, n);
  79:.\Generated_Source\PSoC5/cyfitter_cfg.c **** }
  80:.\Generated_Source\PSoC5/cyfitter_cfg.c **** 
  81:.\Generated_Source\PSoC5/cyfitter_cfg.c **** 
  82:.\Generated_Source\PSoC5/cyfitter_cfg.c **** 
  83:.\Generated_Source\PSoC5/cyfitter_cfg.c **** /* Clock startup error codes                                                   */
  84:.\Generated_Source\PSoC5/cyfitter_cfg.c **** #define CYCLOCKSTART_NO_ERROR    0u
  85:.\Generated_Source\PSoC5/cyfitter_cfg.c **** #define CYCLOCKSTART_XTAL_ERROR  1u
  86:.\Generated_Source\PSoC5/cyfitter_cfg.c **** #define CYCLOCKSTART_32KHZ_ERROR 2u
  87:.\Generated_Source\PSoC5/cyfitter_cfg.c **** #define CYCLOCKSTART_PLL_ERROR   3u
  88:.\Generated_Source\PSoC5/cyfitter_cfg.c **** 
  89:.\Generated_Source\PSoC5/cyfitter_cfg.c **** #ifdef CY_NEED_CYCLOCKSTARTUPERROR
ARM GAS  C:\Users\student\AppData\Local\Temp\cc4gFqWM.s 			page 3


  90:.\Generated_Source\PSoC5/cyfitter_cfg.c **** /*******************************************************************************
  91:.\Generated_Source\PSoC5/cyfitter_cfg.c **** * Function Name: CyClockStartupError
  92:.\Generated_Source\PSoC5/cyfitter_cfg.c **** ********************************************************************************
  93:.\Generated_Source\PSoC5/cyfitter_cfg.c **** * Summary:
  94:.\Generated_Source\PSoC5/cyfitter_cfg.c **** *  If an error is encountered during clock configuration (crystal startup error,
  95:.\Generated_Source\PSoC5/cyfitter_cfg.c **** *  PLL lock error, etc.), the system will end up here.  Unless reimplemented by
  96:.\Generated_Source\PSoC5/cyfitter_cfg.c **** *  the customer, this function will stop in an infinite loop.
  97:.\Generated_Source\PSoC5/cyfitter_cfg.c **** *
  98:.\Generated_Source\PSoC5/cyfitter_cfg.c **** * Parameters:
  99:.\Generated_Source\PSoC5/cyfitter_cfg.c **** *   void
 100:.\Generated_Source\PSoC5/cyfitter_cfg.c **** *
 101:.\Generated_Source\PSoC5/cyfitter_cfg.c **** * Return:
 102:.\Generated_Source\PSoC5/cyfitter_cfg.c **** *   void
 103:.\Generated_Source\PSoC5/cyfitter_cfg.c **** *
 104:.\Generated_Source\PSoC5/cyfitter_cfg.c **** *******************************************************************************/
 105:.\Generated_Source\PSoC5/cyfitter_cfg.c **** CY_CFG_UNUSED
 106:.\Generated_Source\PSoC5/cyfitter_cfg.c **** static void CyClockStartupError(uint8 errorCode);
 107:.\Generated_Source\PSoC5/cyfitter_cfg.c **** CY_CFG_UNUSED
 108:.\Generated_Source\PSoC5/cyfitter_cfg.c **** static void CyClockStartupError(uint8 errorCode)
 109:.\Generated_Source\PSoC5/cyfitter_cfg.c **** {
  26              		.loc 1 109 0
  27              		.cfi_startproc
  28              		@ Volatile: function does not return.
  29              		@ args = 0, pretend = 0, frame = 0
  30              		@ frame_needed = 0, uses_anonymous_args = 0
  31              		@ link register save eliminated.
  32              	.LVL0:
  33              	.L2:
 110:.\Generated_Source\PSoC5/cyfitter_cfg.c ****     /* To remove the compiler warning if errorCode not used.                */
 111:.\Generated_Source\PSoC5/cyfitter_cfg.c ****     errorCode = errorCode;
 112:.\Generated_Source\PSoC5/cyfitter_cfg.c **** 
 113:.\Generated_Source\PSoC5/cyfitter_cfg.c ****     /* `#START CyClockStartupError` */
 114:.\Generated_Source\PSoC5/cyfitter_cfg.c **** 
 115:.\Generated_Source\PSoC5/cyfitter_cfg.c ****     /* If we have a clock startup error (bad MHz crystal, PLL lock, etc.),  */
 116:.\Generated_Source\PSoC5/cyfitter_cfg.c ****     /* we will end up here to allow the customer to implement something to  */
 117:.\Generated_Source\PSoC5/cyfitter_cfg.c ****     /* deal with the clock condition.                                       */
 118:.\Generated_Source\PSoC5/cyfitter_cfg.c **** 
 119:.\Generated_Source\PSoC5/cyfitter_cfg.c ****     /* `#END` */
 120:.\Generated_Source\PSoC5/cyfitter_cfg.c **** 
 121:.\Generated_Source\PSoC5/cyfitter_cfg.c ****     /* If nothing else, stop here since the clocks have not started         */
 122:.\Generated_Source\PSoC5/cyfitter_cfg.c ****     /* correctly.                                                           */
 123:.\Generated_Source\PSoC5/cyfitter_cfg.c ****     while(1) {}
  34              		.loc 1 123 0 discriminator 1
  35 0000 FEE7     		b	.L2
  36              		.cfi_endproc
  37              	.LFE3:
  38              		.size	CyClockStartupError, .-CyClockStartupError
  39 0002 00BF     		.section	.text.cfg_write_bytes32,"ax",%progbits
  40              		.align	2
  41              		.thumb
  42              		.thumb_func
  43              		.type	cfg_write_bytes32, %function
  44              	cfg_write_bytes32:
  45              	.LFB4:
 124:.\Generated_Source\PSoC5/cyfitter_cfg.c **** }
 125:.\Generated_Source\PSoC5/cyfitter_cfg.c **** #endif
 126:.\Generated_Source\PSoC5/cyfitter_cfg.c **** 
ARM GAS  C:\Users\student\AppData\Local\Temp\cc4gFqWM.s 			page 4


 127:.\Generated_Source\PSoC5/cyfitter_cfg.c **** #define CY_CFG_BASE_ADDR_COUNT 31u
 128:.\Generated_Source\PSoC5/cyfitter_cfg.c **** CYPACKED typedef struct
 129:.\Generated_Source\PSoC5/cyfitter_cfg.c **** {
 130:.\Generated_Source\PSoC5/cyfitter_cfg.c **** 	uint8 offset;
 131:.\Generated_Source\PSoC5/cyfitter_cfg.c **** 	uint8 value;
 132:.\Generated_Source\PSoC5/cyfitter_cfg.c **** } CYPACKED_ATTR cy_cfg_addrvalue_t;
 133:.\Generated_Source\PSoC5/cyfitter_cfg.c **** 
 134:.\Generated_Source\PSoC5/cyfitter_cfg.c **** #define cy_cfg_addr_table ((const uint32 CYFAR *)0x48000000u)
 135:.\Generated_Source\PSoC5/cyfitter_cfg.c **** #define cy_cfg_data_table ((const cy_cfg_addrvalue_t CYFAR *)0x4800007Cu)
 136:.\Generated_Source\PSoC5/cyfitter_cfg.c **** 
 137:.\Generated_Source\PSoC5/cyfitter_cfg.c **** /* UDB_0_5_0_CONFIG Address: CYDEV_UCFG_B0_P7_U0_BASE Size (bytes): 128 */
 138:.\Generated_Source\PSoC5/cyfitter_cfg.c **** #define BS_UDB_0_5_0_CONFIG_VAL ((const uint8 CYFAR *)0x48000404u)
 139:.\Generated_Source\PSoC5/cyfitter_cfg.c **** 
 140:.\Generated_Source\PSoC5/cyfitter_cfg.c **** /* IOPINS0_7 Address: CYREG_PRT12_DM0 Size (bytes): 8 */
 141:.\Generated_Source\PSoC5/cyfitter_cfg.c **** #define BS_IOPINS0_7_VAL ((const uint8 CYFAR *)0x48000484u)
 142:.\Generated_Source\PSoC5/cyfitter_cfg.c **** 
 143:.\Generated_Source\PSoC5/cyfitter_cfg.c **** /* IOPINS0_8 Address: CYREG_PRT15_DR Size (bytes): 10 */
 144:.\Generated_Source\PSoC5/cyfitter_cfg.c **** #define BS_IOPINS0_8_VAL ((const uint8 CYFAR *)0x4800048Cu)
 145:.\Generated_Source\PSoC5/cyfitter_cfg.c **** 
 146:.\Generated_Source\PSoC5/cyfitter_cfg.c **** /* IOPINS0_2 Address: CYREG_PRT2_DM0 Size (bytes): 8 */
 147:.\Generated_Source\PSoC5/cyfitter_cfg.c **** #define BS_IOPINS0_2_VAL ((const uint8 CYFAR *)0x48000498u)
 148:.\Generated_Source\PSoC5/cyfitter_cfg.c **** 
 149:.\Generated_Source\PSoC5/cyfitter_cfg.c **** /* IOPINS0_4 Address: CYREG_PRT4_DM0 Size (bytes): 8 */
 150:.\Generated_Source\PSoC5/cyfitter_cfg.c **** #define BS_IOPINS0_4_VAL ((const uint8 CYFAR *)0x480004A0u)
 151:.\Generated_Source\PSoC5/cyfitter_cfg.c **** 
 152:.\Generated_Source\PSoC5/cyfitter_cfg.c **** /* IOPINS0_6 Address: CYREG_PRT6_DR Size (bytes): 10 */
 153:.\Generated_Source\PSoC5/cyfitter_cfg.c **** #define BS_IOPINS0_6_VAL ((const uint8 CYFAR *)0x480004A8u)
 154:.\Generated_Source\PSoC5/cyfitter_cfg.c **** 
 155:.\Generated_Source\PSoC5/cyfitter_cfg.c **** /* CYDEV_CLKDIST_ACFG0_CFG0 Address: CYREG_CLKDIST_ACFG0_CFG0 Size (bytes): 4 */
 156:.\Generated_Source\PSoC5/cyfitter_cfg.c **** #define BS_CYDEV_CLKDIST_ACFG0_CFG0_VAL ((const uint8 CYFAR *)0x480004B4u)
 157:.\Generated_Source\PSoC5/cyfitter_cfg.c **** 
 158:.\Generated_Source\PSoC5/cyfitter_cfg.c **** 
 159:.\Generated_Source\PSoC5/cyfitter_cfg.c **** /*******************************************************************************
 160:.\Generated_Source\PSoC5/cyfitter_cfg.c **** * Function Name: cfg_write_bytes32
 161:.\Generated_Source\PSoC5/cyfitter_cfg.c **** ********************************************************************************
 162:.\Generated_Source\PSoC5/cyfitter_cfg.c **** * Summary:
 163:.\Generated_Source\PSoC5/cyfitter_cfg.c **** *  This function is used for setting up the chip configuration areas that
 164:.\Generated_Source\PSoC5/cyfitter_cfg.c **** *  contain relatively sparse data.
 165:.\Generated_Source\PSoC5/cyfitter_cfg.c **** *
 166:.\Generated_Source\PSoC5/cyfitter_cfg.c **** * Parameters:
 167:.\Generated_Source\PSoC5/cyfitter_cfg.c **** *   void
 168:.\Generated_Source\PSoC5/cyfitter_cfg.c **** *
 169:.\Generated_Source\PSoC5/cyfitter_cfg.c **** * Return:
 170:.\Generated_Source\PSoC5/cyfitter_cfg.c **** *   void
 171:.\Generated_Source\PSoC5/cyfitter_cfg.c **** *
 172:.\Generated_Source\PSoC5/cyfitter_cfg.c **** *******************************************************************************/
 173:.\Generated_Source\PSoC5/cyfitter_cfg.c **** static void cfg_write_bytes32(const uint32 addr_table[], const cy_cfg_addrvalue_t data_table[]);
 174:.\Generated_Source\PSoC5/cyfitter_cfg.c **** static void cfg_write_bytes32(const uint32 addr_table[], const cy_cfg_addrvalue_t data_table[])
 175:.\Generated_Source\PSoC5/cyfitter_cfg.c **** {
  46              		.loc 1 175 0
  47              		.cfi_startproc
  48              		@ args = 0, pretend = 0, frame = 0
  49              		@ frame_needed = 0, uses_anonymous_args = 0
  50              		@ link register save eliminated.
  51              	.LVL1:
  52 0000 F0B4     		push	{r4, r5, r6, r7}
  53              		.cfi_def_cfa_offset 16
ARM GAS  C:\Users\student\AppData\Local\Temp\cc4gFqWM.s 			page 5


  54              		.cfi_offset 4, -16
  55              		.cfi_offset 5, -12
  56              		.cfi_offset 6, -8
  57              		.cfi_offset 7, -4
  58              	.LVL2:
 176:.\Generated_Source\PSoC5/cyfitter_cfg.c **** 	/* For 32-bit little-endian architectures */
 177:.\Generated_Source\PSoC5/cyfitter_cfg.c **** 	uint32 i, j = 0u;
  59              		.loc 1 177 0
  60 0002 0022     		movs	r2, #0
 178:.\Generated_Source\PSoC5/cyfitter_cfg.c **** 	for (i = 0u; i < CY_CFG_BASE_ADDR_COUNT; i++)
  61              		.loc 1 178 0
  62 0004 1746     		mov	r7, r2
  63 0006 11E0     		b	.L4
  64              	.LVL3:
  65              	.L7:
  66              	.LBB2:
 179:.\Generated_Source\PSoC5/cyfitter_cfg.c **** 	{
 180:.\Generated_Source\PSoC5/cyfitter_cfg.c **** 		uint32 baseAddr = addr_table[i];
  67              		.loc 1 180 0
  68 0008 50F82760 		ldr	r6, [r0, r7, lsl #2]
  69              	.LVL4:
 181:.\Generated_Source\PSoC5/cyfitter_cfg.c **** 		uint8 count = (uint8)baseAddr;
  70              		.loc 1 181 0
  71 000c F3B2     		uxtb	r3, r6
  72              	.LVL5:
 182:.\Generated_Source\PSoC5/cyfitter_cfg.c **** 		baseAddr &= 0xFFFFFF00u;
  73              		.loc 1 182 0
  74 000e 26F0FF06 		bic	r6, r6, #255
  75              	.LVL6:
 183:.\Generated_Source\PSoC5/cyfitter_cfg.c **** 		while (count != 0u)
  76              		.loc 1 183 0
  77 0012 08E0     		b	.L5
  78              	.L6:
 184:.\Generated_Source\PSoC5/cyfitter_cfg.c **** 		{
 185:.\Generated_Source\PSoC5/cyfitter_cfg.c **** 			CY_SET_XTND_REG8((void CYFAR *)(baseAddr + data_table[j].offset), data_table[j].value);
  79              		.loc 1 185 0
  80 0014 01EB4205 		add	r5, r1, r2, lsl #1
  81 0018 11F81240 		ldrb	r4, [r1, r2, lsl #1]	@ zero_extendqisi2
  82 001c 6D78     		ldrb	r5, [r5, #1]	@ zero_extendqisi2
  83 001e A555     		strb	r5, [r4, r6]
 186:.\Generated_Source\PSoC5/cyfitter_cfg.c **** 			j++;
  84              		.loc 1 186 0
  85 0020 0132     		adds	r2, r2, #1
  86              	.LVL7:
 187:.\Generated_Source\PSoC5/cyfitter_cfg.c **** 			count--;
  87              		.loc 1 187 0
  88 0022 013B     		subs	r3, r3, #1
  89              	.LVL8:
  90 0024 DBB2     		uxtb	r3, r3
  91              	.LVL9:
  92              	.L5:
 183:.\Generated_Source\PSoC5/cyfitter_cfg.c **** 		{
  93              		.loc 1 183 0
  94 0026 002B     		cmp	r3, #0
  95 0028 F4D1     		bne	.L6
  96              	.LBE2:
 178:.\Generated_Source\PSoC5/cyfitter_cfg.c **** 	{
ARM GAS  C:\Users\student\AppData\Local\Temp\cc4gFqWM.s 			page 6


  97              		.loc 1 178 0 discriminator 2
  98 002a 0137     		adds	r7, r7, #1
  99              	.LVL10:
 100              	.L4:
 178:.\Generated_Source\PSoC5/cyfitter_cfg.c **** 	{
 101              		.loc 1 178 0 is_stmt 0 discriminator 1
 102 002c 1E2F     		cmp	r7, #30
 103 002e EBD9     		bls	.L7
 188:.\Generated_Source\PSoC5/cyfitter_cfg.c **** 		}
 189:.\Generated_Source\PSoC5/cyfitter_cfg.c **** 	}
 190:.\Generated_Source\PSoC5/cyfitter_cfg.c **** }
 104              		.loc 1 190 0 is_stmt 1
 105 0030 F0BC     		pop	{r4, r5, r6, r7}
 106              		.cfi_restore 7
 107              		.cfi_restore 6
 108              		.cfi_restore 5
 109              		.cfi_restore 4
 110              		.cfi_def_cfa_offset 0
 111              	.LVL11:
 112 0032 7047     		bx	lr
 113              		.cfi_endproc
 114              	.LFE4:
 115              		.size	cfg_write_bytes32, .-cfg_write_bytes32
 116              		.section	.text.AnalogSetDefault,"ax",%progbits
 117              		.align	2
 118              		.thumb
 119              		.thumb_func
 120              		.type	AnalogSetDefault, %function
 121              	AnalogSetDefault:
 122              	.LFB6:
 191:.\Generated_Source\PSoC5/cyfitter_cfg.c **** 
 192:.\Generated_Source\PSoC5/cyfitter_cfg.c **** /*******************************************************************************
 193:.\Generated_Source\PSoC5/cyfitter_cfg.c **** * Function Name: ClockSetup
 194:.\Generated_Source\PSoC5/cyfitter_cfg.c **** ********************************************************************************
 195:.\Generated_Source\PSoC5/cyfitter_cfg.c **** *
 196:.\Generated_Source\PSoC5/cyfitter_cfg.c **** * Summary:
 197:.\Generated_Source\PSoC5/cyfitter_cfg.c **** *  Performs the initialization of all of the clocks in the device based on the
 198:.\Generated_Source\PSoC5/cyfitter_cfg.c **** *  settings in the Clock tab of the DWR.  This includes enabling the requested
 199:.\Generated_Source\PSoC5/cyfitter_cfg.c **** *  clocks and setting the necessary dividers to produce the desired frequency. 
 200:.\Generated_Source\PSoC5/cyfitter_cfg.c **** *
 201:.\Generated_Source\PSoC5/cyfitter_cfg.c **** * Parameters:
 202:.\Generated_Source\PSoC5/cyfitter_cfg.c **** *  void
 203:.\Generated_Source\PSoC5/cyfitter_cfg.c **** *
 204:.\Generated_Source\PSoC5/cyfitter_cfg.c **** * Return:
 205:.\Generated_Source\PSoC5/cyfitter_cfg.c **** *  void
 206:.\Generated_Source\PSoC5/cyfitter_cfg.c **** *
 207:.\Generated_Source\PSoC5/cyfitter_cfg.c **** *******************************************************************************/
 208:.\Generated_Source\PSoC5/cyfitter_cfg.c **** static void ClockSetup(void);
 209:.\Generated_Source\PSoC5/cyfitter_cfg.c **** static void ClockSetup(void)
 210:.\Generated_Source\PSoC5/cyfitter_cfg.c **** {
 211:.\Generated_Source\PSoC5/cyfitter_cfg.c **** 	uint32 timeout;
 212:.\Generated_Source\PSoC5/cyfitter_cfg.c **** 	uint8 pllLock;
 213:.\Generated_Source\PSoC5/cyfitter_cfg.c **** 
 214:.\Generated_Source\PSoC5/cyfitter_cfg.c **** 
 215:.\Generated_Source\PSoC5/cyfitter_cfg.c **** 	/* Configure Digital Clocks based on settings from Clock DWR */
 216:.\Generated_Source\PSoC5/cyfitter_cfg.c **** 	CY_SET_XTND_REG16((void CYFAR *)(CYREG_CLKDIST_DCFG0_CFG0), 0x0000u);
 217:.\Generated_Source\PSoC5/cyfitter_cfg.c **** 	CY_SET_XTND_REG8((void CYFAR *)(CYREG_CLKDIST_DCFG0_CFG0 + 0x2u), 0x50u);
ARM GAS  C:\Users\student\AppData\Local\Temp\cc4gFqWM.s 			page 7


 218:.\Generated_Source\PSoC5/cyfitter_cfg.c **** 	CY_SET_XTND_REG16((void CYFAR *)(CYREG_CLKDIST_DCFG1_CFG0), 0x00EFu);
 219:.\Generated_Source\PSoC5/cyfitter_cfg.c **** 	CY_SET_XTND_REG8((void CYFAR *)(CYREG_CLKDIST_DCFG1_CFG0 + 0x2u), 0x18u);
 220:.\Generated_Source\PSoC5/cyfitter_cfg.c **** 	CY_SET_XTND_REG16((void CYFAR *)(CYREG_CLKDIST_DCFG2_CFG0), 0x0138u);
 221:.\Generated_Source\PSoC5/cyfitter_cfg.c **** 	CY_SET_XTND_REG8((void CYFAR *)(CYREG_CLKDIST_DCFG2_CFG0 + 0x2u), 0x18u);
 222:.\Generated_Source\PSoC5/cyfitter_cfg.c **** 	CY_SET_XTND_REG16((void CYFAR *)(CYREG_CLKDIST_DCFG3_CFG0), 0x752Fu);
 223:.\Generated_Source\PSoC5/cyfitter_cfg.c **** 	CY_SET_XTND_REG8((void CYFAR *)(CYREG_CLKDIST_DCFG3_CFG0 + 0x2u), 0x19u);
 224:.\Generated_Source\PSoC5/cyfitter_cfg.c **** 	CY_SET_XTND_REG16((void CYFAR *)(CYREG_CLKDIST_DCFG4_CFG0), 0x0009u);
 225:.\Generated_Source\PSoC5/cyfitter_cfg.c **** 	CY_SET_XTND_REG8((void CYFAR *)(CYREG_CLKDIST_DCFG4_CFG0 + 0x2u), 0x1Bu);
 226:.\Generated_Source\PSoC5/cyfitter_cfg.c **** 
 227:.\Generated_Source\PSoC5/cyfitter_cfg.c **** 	/* Configure Analog Clocks based on settings from Clock DWR */
 228:.\Generated_Source\PSoC5/cyfitter_cfg.c **** 	CYCONFIGCPY((void CYFAR *)(CYREG_CLKDIST_ACFG0_CFG0), (const void CYFAR *)(BS_CYDEV_CLKDIST_ACFG0_
 229:.\Generated_Source\PSoC5/cyfitter_cfg.c **** 
 230:.\Generated_Source\PSoC5/cyfitter_cfg.c **** 	/* Configure ILO based on settings from Clock DWR */
 231:.\Generated_Source\PSoC5/cyfitter_cfg.c **** 	CY_SET_XTND_REG8((void CYFAR *)(CYREG_SLOWCLK_ILO_CR0), 0x02u);
 232:.\Generated_Source\PSoC5/cyfitter_cfg.c **** 	CY_SET_XTND_REG8((void CYFAR *)(CYREG_CLKDIST_CR), 0x08u);
 233:.\Generated_Source\PSoC5/cyfitter_cfg.c **** 
 234:.\Generated_Source\PSoC5/cyfitter_cfg.c **** 	/* Configure IMO based on settings from Clock DWR */
 235:.\Generated_Source\PSoC5/cyfitter_cfg.c **** 	CY_SET_XTND_REG8((void CYFAR *)(CYREG_FASTCLK_IMO_CR), 0x03u);
 236:.\Generated_Source\PSoC5/cyfitter_cfg.c **** 	CY_SET_XTND_REG8((void CYFAR *)(CYREG_IMO_TR1), (CY_GET_XTND_REG8((void CYFAR *)CYREG_FLSHID_CUST_
 237:.\Generated_Source\PSoC5/cyfitter_cfg.c **** 
 238:.\Generated_Source\PSoC5/cyfitter_cfg.c **** 	/* Configure PLL based on settings from Clock DWR */
 239:.\Generated_Source\PSoC5/cyfitter_cfg.c **** 	CY_SET_XTND_REG16((void CYFAR *)(CYREG_FASTCLK_PLL_P), 0x0008u);
 240:.\Generated_Source\PSoC5/cyfitter_cfg.c **** 	CY_SET_XTND_REG16((void CYFAR *)(CYREG_FASTCLK_PLL_CFG0), 0x1251u);
 241:.\Generated_Source\PSoC5/cyfitter_cfg.c **** 	/* Wait up to 250us for the PLL to lock */
 242:.\Generated_Source\PSoC5/cyfitter_cfg.c **** 	pllLock = 0u;
 243:.\Generated_Source\PSoC5/cyfitter_cfg.c **** 	for (timeout = 250u / 10u; (timeout > 0u) && (pllLock != 0x03u); timeout--)
 244:.\Generated_Source\PSoC5/cyfitter_cfg.c **** 	{ 
 245:.\Generated_Source\PSoC5/cyfitter_cfg.c **** 		pllLock = 0x03u & ((uint8)((uint8)pllLock << 1) | ((CY_GET_XTND_REG8((void CYFAR *)CYREG_FASTCLK_
 246:.\Generated_Source\PSoC5/cyfitter_cfg.c **** 		CyDelayCycles(10u * 48u); /* Delay 10us based on 48MHz clock */
 247:.\Generated_Source\PSoC5/cyfitter_cfg.c **** 	}
 248:.\Generated_Source\PSoC5/cyfitter_cfg.c **** 	/* If we ran out of time the PLL didn't lock so go to the error function */
 249:.\Generated_Source\PSoC5/cyfitter_cfg.c **** 	if (timeout == 0u)
 250:.\Generated_Source\PSoC5/cyfitter_cfg.c **** 	{
 251:.\Generated_Source\PSoC5/cyfitter_cfg.c **** 		CyClockStartupError(CYCLOCKSTART_PLL_ERROR);
 252:.\Generated_Source\PSoC5/cyfitter_cfg.c **** 	}
 253:.\Generated_Source\PSoC5/cyfitter_cfg.c **** 
 254:.\Generated_Source\PSoC5/cyfitter_cfg.c **** 	/* Configure Bus/Master Clock based on settings from Clock DWR */
 255:.\Generated_Source\PSoC5/cyfitter_cfg.c **** 	CY_SET_XTND_REG16((void CYFAR *)(CYREG_CLKDIST_MSTR0), 0x0100u);
 256:.\Generated_Source\PSoC5/cyfitter_cfg.c **** 	CY_SET_XTND_REG8((void CYFAR *)(CYREG_CLKDIST_MSTR0), 0x07u);
 257:.\Generated_Source\PSoC5/cyfitter_cfg.c **** 	CY_SET_XTND_REG8((void CYFAR *)(CYREG_CLKDIST_BCFG0), 0x00u);
 258:.\Generated_Source\PSoC5/cyfitter_cfg.c **** 	CY_SET_XTND_REG8((void CYFAR *)(CYREG_CLKDIST_BCFG2), 0x48u);
 259:.\Generated_Source\PSoC5/cyfitter_cfg.c **** 	CY_SET_XTND_REG8((void CYFAR *)(CYREG_CLKDIST_MSTR0), 0x00u);
 260:.\Generated_Source\PSoC5/cyfitter_cfg.c **** 	CY_SET_XTND_REG8((void CYFAR *)(CYREG_CLKDIST_LD), 0x02u);
 261:.\Generated_Source\PSoC5/cyfitter_cfg.c **** 	CY_SET_XTND_REG8((void CYFAR *)(CYREG_CLKDIST_DLY1), 0x04u);
 262:.\Generated_Source\PSoC5/cyfitter_cfg.c **** 
 263:.\Generated_Source\PSoC5/cyfitter_cfg.c **** 	CY_SET_XTND_REG8((void CYFAR *)(CYREG_PM_ACT_CFG2), ((CY_GET_XTND_REG8((void CYFAR *)CYREG_PM_ACT_
 264:.\Generated_Source\PSoC5/cyfitter_cfg.c **** 	CY_SET_XTND_REG8((void CYFAR *)(CYREG_PM_ACT_CFG1), ((CY_GET_XTND_REG8((void CYFAR *)CYREG_PM_ACT_
 265:.\Generated_Source\PSoC5/cyfitter_cfg.c **** 	CY_SET_XTND_REG8((void CYFAR *)(CYREG_PM_ACT_CFG0), ((CY_GET_XTND_REG8((void CYFAR *)CYREG_PM_ACT_
 266:.\Generated_Source\PSoC5/cyfitter_cfg.c **** }
 267:.\Generated_Source\PSoC5/cyfitter_cfg.c **** 
 268:.\Generated_Source\PSoC5/cyfitter_cfg.c **** 
 269:.\Generated_Source\PSoC5/cyfitter_cfg.c **** /* Analog API Functions */
 270:.\Generated_Source\PSoC5/cyfitter_cfg.c **** 
 271:.\Generated_Source\PSoC5/cyfitter_cfg.c **** 
 272:.\Generated_Source\PSoC5/cyfitter_cfg.c **** /*******************************************************************************
 273:.\Generated_Source\PSoC5/cyfitter_cfg.c **** * Function Name: AnalogSetDefault
 274:.\Generated_Source\PSoC5/cyfitter_cfg.c **** ********************************************************************************
ARM GAS  C:\Users\student\AppData\Local\Temp\cc4gFqWM.s 			page 8


 275:.\Generated_Source\PSoC5/cyfitter_cfg.c **** *
 276:.\Generated_Source\PSoC5/cyfitter_cfg.c **** * Summary:
 277:.\Generated_Source\PSoC5/cyfitter_cfg.c **** *  Sets up the analog portions of the chip to default values based on chip
 278:.\Generated_Source\PSoC5/cyfitter_cfg.c **** *  configuration options from the project.
 279:.\Generated_Source\PSoC5/cyfitter_cfg.c **** *
 280:.\Generated_Source\PSoC5/cyfitter_cfg.c **** * Parameters:
 281:.\Generated_Source\PSoC5/cyfitter_cfg.c **** *  void
 282:.\Generated_Source\PSoC5/cyfitter_cfg.c **** *
 283:.\Generated_Source\PSoC5/cyfitter_cfg.c **** * Return:
 284:.\Generated_Source\PSoC5/cyfitter_cfg.c **** *  void
 285:.\Generated_Source\PSoC5/cyfitter_cfg.c **** *
 286:.\Generated_Source\PSoC5/cyfitter_cfg.c **** *******************************************************************************/
 287:.\Generated_Source\PSoC5/cyfitter_cfg.c **** static void AnalogSetDefault(void);
 288:.\Generated_Source\PSoC5/cyfitter_cfg.c **** static void AnalogSetDefault(void)
 289:.\Generated_Source\PSoC5/cyfitter_cfg.c **** {
 123              		.loc 1 289 0
 124              		.cfi_startproc
 125              		@ args = 0, pretend = 0, frame = 0
 126              		@ frame_needed = 0, uses_anonymous_args = 0
 127              		@ link register save eliminated.
 290:.\Generated_Source\PSoC5/cyfitter_cfg.c **** 	uint8 bg_xover_inl_trim = CY_GET_XTND_REG8((void CYFAR *)(CYREG_FLSHID_MFG_CFG_BG_XOVER_INL_TRIM +
 128              		.loc 1 290 0
 129 0000 064B     		ldr	r3, .L10
 130 0002 1B78     		ldrb	r3, [r3]	@ zero_extendqisi2
 131 0004 DBB2     		uxtb	r3, r3
 132              	.LVL12:
 291:.\Generated_Source\PSoC5/cyfitter_cfg.c **** 	CY_SET_XTND_REG8((void CYFAR *)(CYREG_BG_DFT0), (bg_xover_inl_trim & 0x07u));
 133              		.loc 1 291 0
 134 0006 03F00701 		and	r1, r3, #7
 135 000a 054A     		ldr	r2, .L10+4
 136 000c 1170     		strb	r1, [r2]
 292:.\Generated_Source\PSoC5/cyfitter_cfg.c **** 	CY_SET_XTND_REG8((void CYFAR *)(CYREG_BG_DFT1), ((bg_xover_inl_trim >> 4) & 0x0Fu));
 137              		.loc 1 292 0
 138 000e 1B09     		lsrs	r3, r3, #4
 139              	.LVL13:
 140 0010 0132     		adds	r2, r2, #1
 141 0012 1370     		strb	r3, [r2]
 293:.\Generated_Source\PSoC5/cyfitter_cfg.c **** 	CY_SET_XTND_REG8((void CYFAR *)CYREG_PUMP_CR0, 0x44u);
 142              		.loc 1 293 0
 143 0014 4422     		movs	r2, #68
 144 0016 034B     		ldr	r3, .L10+8
 145 0018 1A70     		strb	r2, [r3]
 146 001a 7047     		bx	lr
 147              	.L11:
 148              		.align	2
 149              	.L10:
 150 001c CF010049 		.word	1224737231
 151 0020 6E580040 		.word	1073764462
 152 0024 76580040 		.word	1073764470
 153              		.cfi_endproc
 154              	.LFE6:
 155              		.size	AnalogSetDefault, .-AnalogSetDefault
 156              		.section	.text.CYMEMZERO,"ax",%progbits
 157              		.align	2
 158              		.thumb
 159              		.thumb_func
 160              		.type	CYMEMZERO, %function
ARM GAS  C:\Users\student\AppData\Local\Temp\cc4gFqWM.s 			page 9


 161              	CYMEMZERO:
 162              	.LFB0:
  63:.\Generated_Source\PSoC5/cyfitter_cfg.c **** 	(void)memset(s, 0, n);
 163              		.loc 1 63 0
 164              		.cfi_startproc
 165              		@ args = 0, pretend = 0, frame = 0
 166              		@ frame_needed = 0, uses_anonymous_args = 0
 167              	.LVL14:
 168 0000 08B5     		push	{r3, lr}
 169              		.cfi_def_cfa_offset 8
 170              		.cfi_offset 3, -8
 171              		.cfi_offset 14, -4
 172 0002 0A46     		mov	r2, r1
  64:.\Generated_Source\PSoC5/cyfitter_cfg.c **** }
 173              		.loc 1 64 0
 174 0004 0021     		movs	r1, #0
 175              	.LVL15:
 176 0006 FFF7FEFF 		bl	memset
 177              	.LVL16:
 178 000a 08BD     		pop	{r3, pc}
 179              		.cfi_endproc
 180              	.LFE0:
 181              		.size	CYMEMZERO, .-CYMEMZERO
 182              		.section	.text.CYCONFIGCPY,"ax",%progbits
 183              		.align	2
 184              		.thumb
 185              		.thumb_func
 186              		.type	CYCONFIGCPY, %function
 187              	CYCONFIGCPY:
 188              	.LFB1:
  70:.\Generated_Source\PSoC5/cyfitter_cfg.c **** 	(void)memcpy(dest, src, n);
 189              		.loc 1 70 0
 190              		.cfi_startproc
 191              		@ args = 0, pretend = 0, frame = 0
 192              		@ frame_needed = 0, uses_anonymous_args = 0
 193              	.LVL17:
 194 0000 08B5     		push	{r3, lr}
 195              		.cfi_def_cfa_offset 8
 196              		.cfi_offset 3, -8
 197              		.cfi_offset 14, -4
  71:.\Generated_Source\PSoC5/cyfitter_cfg.c **** }
 198              		.loc 1 71 0
 199 0002 FFF7FEFF 		bl	memcpy
 200              	.LVL18:
 201 0006 08BD     		pop	{r3, pc}
 202              		.cfi_endproc
 203              	.LFE1:
 204              		.size	CYCONFIGCPY, .-CYCONFIGCPY
 205              		.section	.text.ClockSetup,"ax",%progbits
 206              		.align	2
 207              		.thumb
 208              		.thumb_func
 209              		.type	ClockSetup, %function
 210              	ClockSetup:
 211              	.LFB5:
 210:.\Generated_Source\PSoC5/cyfitter_cfg.c **** 	uint32 timeout;
 212              		.loc 1 210 0
ARM GAS  C:\Users\student\AppData\Local\Temp\cc4gFqWM.s 			page 10


 213              		.cfi_startproc
 214              		@ args = 0, pretend = 0, frame = 0
 215              		@ frame_needed = 0, uses_anonymous_args = 0
 216 0000 38B5     		push	{r3, r4, r5, lr}
 217              		.cfi_def_cfa_offset 16
 218              		.cfi_offset 3, -16
 219              		.cfi_offset 4, -12
 220              		.cfi_offset 5, -8
 221              		.cfi_offset 14, -4
 216:.\Generated_Source\PSoC5/cyfitter_cfg.c **** 	CY_SET_XTND_REG8((void CYFAR *)(CYREG_CLKDIST_DCFG0_CFG0 + 0x2u), 0x50u);
 222              		.loc 1 216 0
 223 0002 0024     		movs	r4, #0
 224 0004 384B     		ldr	r3, .L22
 225 0006 1C80     		strh	r4, [r3]	@ movhi
 217:.\Generated_Source\PSoC5/cyfitter_cfg.c **** 	CY_SET_XTND_REG16((void CYFAR *)(CYREG_CLKDIST_DCFG1_CFG0), 0x00EFu);
 226              		.loc 1 217 0
 227 0008 5022     		movs	r2, #80
 228 000a 0233     		adds	r3, r3, #2
 229 000c 1A70     		strb	r2, [r3]
 218:.\Generated_Source\PSoC5/cyfitter_cfg.c **** 	CY_SET_XTND_REG8((void CYFAR *)(CYREG_CLKDIST_DCFG1_CFG0 + 0x2u), 0x18u);
 230              		.loc 1 218 0
 231 000e EF22     		movs	r2, #239
 232 0010 0233     		adds	r3, r3, #2
 233 0012 1A80     		strh	r2, [r3]	@ movhi
 219:.\Generated_Source\PSoC5/cyfitter_cfg.c **** 	CY_SET_XTND_REG16((void CYFAR *)(CYREG_CLKDIST_DCFG2_CFG0), 0x0138u);
 234              		.loc 1 219 0
 235 0014 1823     		movs	r3, #24
 236 0016 354A     		ldr	r2, .L22+4
 237 0018 1370     		strb	r3, [r2]
 220:.\Generated_Source\PSoC5/cyfitter_cfg.c **** 	CY_SET_XTND_REG8((void CYFAR *)(CYREG_CLKDIST_DCFG2_CFG0 + 0x2u), 0x18u);
 238              		.loc 1 220 0
 239 001a 4FF49C71 		mov	r1, #312
 240 001e 0232     		adds	r2, r2, #2
 241 0020 1180     		strh	r1, [r2]	@ movhi
 221:.\Generated_Source\PSoC5/cyfitter_cfg.c **** 	CY_SET_XTND_REG16((void CYFAR *)(CYREG_CLKDIST_DCFG3_CFG0), 0x752Fu);
 242              		.loc 1 221 0
 243 0022 0232     		adds	r2, r2, #2
 244 0024 1370     		strb	r3, [r2]
 222:.\Generated_Source\PSoC5/cyfitter_cfg.c **** 	CY_SET_XTND_REG8((void CYFAR *)(CYREG_CLKDIST_DCFG3_CFG0 + 0x2u), 0x19u);
 245              		.loc 1 222 0
 246 0026 47F22F52 		movw	r2, #29999
 247 002a 314B     		ldr	r3, .L22+8
 248 002c 1A80     		strh	r2, [r3]	@ movhi
 223:.\Generated_Source\PSoC5/cyfitter_cfg.c **** 	CY_SET_XTND_REG16((void CYFAR *)(CYREG_CLKDIST_DCFG4_CFG0), 0x0009u);
 249              		.loc 1 223 0
 250 002e 1925     		movs	r5, #25
 251 0030 0233     		adds	r3, r3, #2
 252 0032 1D70     		strb	r5, [r3]
 224:.\Generated_Source\PSoC5/cyfitter_cfg.c **** 	CY_SET_XTND_REG8((void CYFAR *)(CYREG_CLKDIST_DCFG4_CFG0 + 0x2u), 0x1Bu);
 253              		.loc 1 224 0
 254 0034 0922     		movs	r2, #9
 255 0036 0233     		adds	r3, r3, #2
 256 0038 1A80     		strh	r2, [r3]	@ movhi
 225:.\Generated_Source\PSoC5/cyfitter_cfg.c **** 
 257              		.loc 1 225 0
 258 003a 1B22     		movs	r2, #27
 259 003c 0233     		adds	r3, r3, #2
ARM GAS  C:\Users\student\AppData\Local\Temp\cc4gFqWM.s 			page 11


 260 003e 1A70     		strb	r2, [r3]
 228:.\Generated_Source\PSoC5/cyfitter_cfg.c **** 
 261              		.loc 1 228 0
 262 0040 2C48     		ldr	r0, .L22+12
 263 0042 2D49     		ldr	r1, .L22+16
 264 0044 0422     		movs	r2, #4
 265 0046 FFF7FEFF 		bl	CYCONFIGCPY
 266              	.LVL19:
 231:.\Generated_Source\PSoC5/cyfitter_cfg.c **** 	CY_SET_XTND_REG8((void CYFAR *)(CYREG_CLKDIST_CR), 0x08u);
 267              		.loc 1 231 0
 268 004a 0222     		movs	r2, #2
 269 004c 2B4B     		ldr	r3, .L22+20
 270 004e 1A70     		strb	r2, [r3]
 232:.\Generated_Source\PSoC5/cyfitter_cfg.c **** 
 271              		.loc 1 232 0
 272 0050 0822     		movs	r2, #8
 273 0052 4FF04023 		mov	r3, #1073758208
 274 0056 1A70     		strb	r2, [r3]
 235:.\Generated_Source\PSoC5/cyfitter_cfg.c **** 	CY_SET_XTND_REG8((void CYFAR *)(CYREG_IMO_TR1), (CY_GET_XTND_REG8((void CYFAR *)CYREG_FLSHID_CUST_
 275              		.loc 1 235 0
 276 0058 0321     		movs	r1, #3
 277 005a 03F50073 		add	r3, r3, #512
 278 005e 1970     		strb	r1, [r3]
 236:.\Generated_Source\PSoC5/cyfitter_cfg.c **** 
 279              		.loc 1 236 0
 280 0060 274B     		ldr	r3, .L22+24
 281 0062 1B78     		ldrb	r3, [r3]	@ zero_extendqisi2
 282 0064 DBB2     		uxtb	r3, r3
 283 0066 2749     		ldr	r1, .L22+28
 284 0068 0B70     		strb	r3, [r1]
 239:.\Generated_Source\PSoC5/cyfitter_cfg.c **** 	CY_SET_XTND_REG16((void CYFAR *)(CYREG_FASTCLK_PLL_CFG0), 0x1251u);
 285              		.loc 1 239 0
 286 006a 274B     		ldr	r3, .L22+32
 287 006c 1A80     		strh	r2, [r3]	@ movhi
 240:.\Generated_Source\PSoC5/cyfitter_cfg.c **** 	/* Wait up to 250us for the PLL to lock */
 288              		.loc 1 240 0
 289 006e 41F25122 		movw	r2, #4689
 290 0072 023B     		subs	r3, r3, #2
 291 0074 1A80     		strh	r2, [r3]	@ movhi
 292              	.LVL20:
 243:.\Generated_Source\PSoC5/cyfitter_cfg.c **** 	{ 
 293              		.loc 1 243 0
 294 0076 0CE0     		b	.L17
 295              	.LVL21:
 296              	.L19:
 245:.\Generated_Source\PSoC5/cyfitter_cfg.c **** 		CyDelayCycles(10u * 48u); /* Delay 10us based on 48MHz clock */
 297              		.loc 1 245 0 discriminator 4
 298 0078 244B     		ldr	r3, .L22+36
 299 007a 1B78     		ldrb	r3, [r3]	@ zero_extendqisi2
 300 007c 03F00103 		and	r3, r3, #1
 301 0080 43EA4404 		orr	r4, r3, r4, lsl #1
 302              	.LVL22:
 303 0084 04F00304 		and	r4, r4, #3
 304              	.LVL23:
 246:.\Generated_Source\PSoC5/cyfitter_cfg.c **** 	}
 305              		.loc 1 246 0 discriminator 4
 306 0088 4FF4F070 		mov	r0, #480
ARM GAS  C:\Users\student\AppData\Local\Temp\cc4gFqWM.s 			page 12


 307 008c FFF7FEFF 		bl	CyDelayCycles
 308              	.LVL24:
 243:.\Generated_Source\PSoC5/cyfitter_cfg.c **** 	{ 
 309              		.loc 1 243 0 discriminator 4
 310 0090 013D     		subs	r5, r5, #1
 311              	.LVL25:
 312              	.L17:
 243:.\Generated_Source\PSoC5/cyfitter_cfg.c **** 	{ 
 313              		.loc 1 243 0 is_stmt 0 discriminator 1
 314 0092 0DB1     		cbz	r5, .L18
 243:.\Generated_Source\PSoC5/cyfitter_cfg.c **** 	{ 
 315              		.loc 1 243 0 discriminator 3
 316 0094 032C     		cmp	r4, #3
 317 0096 EFD1     		bne	.L19
 318              	.L18:
 249:.\Generated_Source\PSoC5/cyfitter_cfg.c **** 	{
 319              		.loc 1 249 0 is_stmt 1
 320 0098 15B9     		cbnz	r5, .L20
 251:.\Generated_Source\PSoC5/cyfitter_cfg.c **** 	}
 321              		.loc 1 251 0
 322 009a 0320     		movs	r0, #3
 323 009c FFF7FEFF 		bl	CyClockStartupError
 324              	.LVL26:
 325              	.L20:
 255:.\Generated_Source\PSoC5/cyfitter_cfg.c **** 	CY_SET_XTND_REG8((void CYFAR *)(CYREG_CLKDIST_MSTR0), 0x07u);
 326              		.loc 1 255 0
 327 00a0 1B4B     		ldr	r3, .L22+40
 328 00a2 4FF48072 		mov	r2, #256
 329 00a6 1A80     		strh	r2, [r3]	@ movhi
 256:.\Generated_Source\PSoC5/cyfitter_cfg.c **** 	CY_SET_XTND_REG8((void CYFAR *)(CYREG_CLKDIST_BCFG0), 0x00u);
 330              		.loc 1 256 0
 331 00a8 0722     		movs	r2, #7
 332 00aa 1A70     		strb	r2, [r3]
 257:.\Generated_Source\PSoC5/cyfitter_cfg.c **** 	CY_SET_XTND_REG8((void CYFAR *)(CYREG_CLKDIST_BCFG2), 0x48u);
 333              		.loc 1 257 0
 334 00ac 0022     		movs	r2, #0
 335 00ae 1949     		ldr	r1, .L22+44
 336 00b0 0A70     		strb	r2, [r1]
 258:.\Generated_Source\PSoC5/cyfitter_cfg.c **** 	CY_SET_XTND_REG8((void CYFAR *)(CYREG_CLKDIST_MSTR0), 0x00u);
 337              		.loc 1 258 0
 338 00b2 4820     		movs	r0, #72
 339 00b4 0231     		adds	r1, r1, #2
 340 00b6 0870     		strb	r0, [r1]
 259:.\Generated_Source\PSoC5/cyfitter_cfg.c **** 	CY_SET_XTND_REG8((void CYFAR *)(CYREG_CLKDIST_LD), 0x02u);
 341              		.loc 1 259 0
 342 00b8 1A70     		strb	r2, [r3]
 260:.\Generated_Source\PSoC5/cyfitter_cfg.c **** 	CY_SET_XTND_REG8((void CYFAR *)(CYREG_CLKDIST_DLY1), 0x04u);
 343              		.loc 1 260 0
 344 00ba 0222     		movs	r2, #2
 345 00bc 033B     		subs	r3, r3, #3
 346 00be 1A70     		strb	r2, [r3]
 261:.\Generated_Source\PSoC5/cyfitter_cfg.c **** 
 347              		.loc 1 261 0
 348 00c0 0422     		movs	r2, #4
 349 00c2 0A33     		adds	r3, r3, #10
 350 00c4 1A70     		strb	r2, [r3]
 263:.\Generated_Source\PSoC5/cyfitter_cfg.c **** 	CY_SET_XTND_REG8((void CYFAR *)(CYREG_PM_ACT_CFG1), ((CY_GET_XTND_REG8((void CYFAR *)CYREG_PM_ACT_
ARM GAS  C:\Users\student\AppData\Local\Temp\cc4gFqWM.s 			page 13


 351              		.loc 1 263 0
 352 00c6 144A     		ldr	r2, .L22+48
 353 00c8 1378     		ldrb	r3, [r2]	@ zero_extendqisi2
 354 00ca 43F01F03 		orr	r3, r3, #31
 355 00ce 1370     		strb	r3, [r2]
 264:.\Generated_Source\PSoC5/cyfitter_cfg.c **** 	CY_SET_XTND_REG8((void CYFAR *)(CYREG_PM_ACT_CFG0), ((CY_GET_XTND_REG8((void CYFAR *)CYREG_PM_ACT_
 356              		.loc 1 264 0
 357 00d0 013A     		subs	r2, r2, #1
 358 00d2 1378     		ldrb	r3, [r2]	@ zero_extendqisi2
 359 00d4 43F00103 		orr	r3, r3, #1
 360 00d8 1370     		strb	r3, [r2]
 265:.\Generated_Source\PSoC5/cyfitter_cfg.c **** }
 361              		.loc 1 265 0
 362 00da 013A     		subs	r2, r2, #1
 363 00dc 1378     		ldrb	r3, [r2]	@ zero_extendqisi2
 364 00de 43F08003 		orr	r3, r3, #128
 365 00e2 1370     		strb	r3, [r2]
 366 00e4 38BD     		pop	{r3, r4, r5, pc}
 367              	.LVL27:
 368              	.L23:
 369 00e6 00BF     		.align	2
 370              	.L22:
 371 00e8 80400040 		.word	1073758336
 372 00ec 86400040 		.word	1073758342
 373 00f0 8C400040 		.word	1073758348
 374 00f4 00410040 		.word	1073758464
 375 00f8 B4040048 		.word	1207960756
 376 00fc 00430040 		.word	1073758976
 377 0100 08010049 		.word	1224737032
 378 0104 A1460040 		.word	1073759905
 379 0108 22420040 		.word	1073758754
 380 010c 25420040 		.word	1073758757
 381 0110 04400040 		.word	1073758212
 382 0114 06400040 		.word	1073758214
 383 0118 A2430040 		.word	1073759138
 384              		.cfi_endproc
 385              	.LFE5:
 386              		.size	ClockSetup, .-ClockSetup
 387              		.section	.text.SetAnalogRoutingPumps,"ax",%progbits
 388              		.align	2
 389              		.global	SetAnalogRoutingPumps
 390              		.thumb
 391              		.thumb_func
 392              		.type	SetAnalogRoutingPumps, %function
 393              	SetAnalogRoutingPumps:
 394              	.LFB7:
 294:.\Generated_Source\PSoC5/cyfitter_cfg.c **** }
 295:.\Generated_Source\PSoC5/cyfitter_cfg.c **** 
 296:.\Generated_Source\PSoC5/cyfitter_cfg.c **** 
 297:.\Generated_Source\PSoC5/cyfitter_cfg.c **** /*******************************************************************************
 298:.\Generated_Source\PSoC5/cyfitter_cfg.c **** * Function Name: SetAnalogRoutingPumps
 299:.\Generated_Source\PSoC5/cyfitter_cfg.c **** ********************************************************************************
 300:.\Generated_Source\PSoC5/cyfitter_cfg.c **** *
 301:.\Generated_Source\PSoC5/cyfitter_cfg.c **** * Summary:
 302:.\Generated_Source\PSoC5/cyfitter_cfg.c **** * Enables or disables the analog pumps feeding analog routing switches.
 303:.\Generated_Source\PSoC5/cyfitter_cfg.c **** * Intended to be called at startup, based on the Vdda system configuration;
 304:.\Generated_Source\PSoC5/cyfitter_cfg.c **** * may be called during operation when the user informs us that the Vdda voltage
ARM GAS  C:\Users\student\AppData\Local\Temp\cc4gFqWM.s 			page 14


 305:.\Generated_Source\PSoC5/cyfitter_cfg.c **** * crossed the pump threshold.
 306:.\Generated_Source\PSoC5/cyfitter_cfg.c **** *
 307:.\Generated_Source\PSoC5/cyfitter_cfg.c **** * Parameters:
 308:.\Generated_Source\PSoC5/cyfitter_cfg.c **** *  enabled - 1 to enable the pumps, 0 to disable the pumps
 309:.\Generated_Source\PSoC5/cyfitter_cfg.c **** *
 310:.\Generated_Source\PSoC5/cyfitter_cfg.c **** * Return:
 311:.\Generated_Source\PSoC5/cyfitter_cfg.c **** *  void
 312:.\Generated_Source\PSoC5/cyfitter_cfg.c **** *
 313:.\Generated_Source\PSoC5/cyfitter_cfg.c **** *******************************************************************************/
 314:.\Generated_Source\PSoC5/cyfitter_cfg.c **** void SetAnalogRoutingPumps(uint8 enabled)
 315:.\Generated_Source\PSoC5/cyfitter_cfg.c **** {
 395              		.loc 1 315 0
 396              		.cfi_startproc
 397              		@ args = 0, pretend = 0, frame = 0
 398              		@ frame_needed = 0, uses_anonymous_args = 0
 399              		@ link register save eliminated.
 400              	.LVL28:
 316:.\Generated_Source\PSoC5/cyfitter_cfg.c **** 	uint8 regValue = CY_GET_XTND_REG8((void CYFAR *)CYREG_PUMP_CR0);
 401              		.loc 1 316 0
 402 0000 054B     		ldr	r3, .L27
 403 0002 1B78     		ldrb	r3, [r3]	@ zero_extendqisi2
 404 0004 DBB2     		uxtb	r3, r3
 405              	.LVL29:
 317:.\Generated_Source\PSoC5/cyfitter_cfg.c **** 	if (enabled != 0u)
 406              		.loc 1 317 0
 407 0006 10B1     		cbz	r0, .L25
 318:.\Generated_Source\PSoC5/cyfitter_cfg.c **** 	{
 319:.\Generated_Source\PSoC5/cyfitter_cfg.c **** 		regValue |= 0x22u;
 408              		.loc 1 319 0
 409 0008 43F02203 		orr	r3, r3, #34
 410              	.LVL30:
 411 000c 01E0     		b	.L26
 412              	.L25:
 320:.\Generated_Source\PSoC5/cyfitter_cfg.c **** 	}
 321:.\Generated_Source\PSoC5/cyfitter_cfg.c **** 	else
 322:.\Generated_Source\PSoC5/cyfitter_cfg.c **** 	{
 323:.\Generated_Source\PSoC5/cyfitter_cfg.c **** 		regValue &= (uint8)~0x22u;
 413              		.loc 1 323 0
 414 000e 03F0DD03 		and	r3, r3, #221
 415              	.LVL31:
 416              	.L26:
 324:.\Generated_Source\PSoC5/cyfitter_cfg.c **** 	}
 325:.\Generated_Source\PSoC5/cyfitter_cfg.c **** 	CY_SET_XTND_REG8((void CYFAR *)CYREG_PUMP_CR0, regValue);
 417              		.loc 1 325 0
 418 0012 014A     		ldr	r2, .L27
 419 0014 1370     		strb	r3, [r2]
 420 0016 7047     		bx	lr
 421              	.L28:
 422              		.align	2
 423              	.L27:
 424 0018 76580040 		.word	1073764470
 425              		.cfi_endproc
 426              	.LFE7:
 427              		.size	SetAnalogRoutingPumps, .-SetAnalogRoutingPumps
 428              		.section	.text.AMux_1_Set,"ax",%progbits
 429              		.align	2
 430              		.global	AMux_1_Set
ARM GAS  C:\Users\student\AppData\Local\Temp\cc4gFqWM.s 			page 15


 431              		.thumb
 432              		.thumb_func
 433              		.type	AMux_1_Set, %function
 434              	AMux_1_Set:
 435              	.LFB8:
 326:.\Generated_Source\PSoC5/cyfitter_cfg.c **** }
 327:.\Generated_Source\PSoC5/cyfitter_cfg.c **** 
 328:.\Generated_Source\PSoC5/cyfitter_cfg.c **** #define CY_AMUX_UNUSED CYREG_BOOST_SR
 329:.\Generated_Source\PSoC5/cyfitter_cfg.c **** /* This is an implementation detail of the AMux. Code that depends on it may be
 330:.\Generated_Source\PSoC5/cyfitter_cfg.c ****    incompatible with other versions of PSoC Creator. */
 331:.\Generated_Source\PSoC5/cyfitter_cfg.c **** uint8 CYXDATA * const CYCODE AMux_1__addrTable[8] = {
 332:.\Generated_Source\PSoC5/cyfitter_cfg.c **** 	(uint8 CYXDATA *)CYREG_PRT6_AG, (uint8 CYXDATA *)CYREG_DSM0_SW0, 
 333:.\Generated_Source\PSoC5/cyfitter_cfg.c **** 	(uint8 CYXDATA *)CYREG_PRT4_AG, (uint8 CYXDATA *)CYREG_DSM0_SW0, 
 334:.\Generated_Source\PSoC5/cyfitter_cfg.c **** 	(uint8 CYXDATA *)CYREG_PRT4_AG, (uint8 CYXDATA *)CYREG_DSM0_SW0, 
 335:.\Generated_Source\PSoC5/cyfitter_cfg.c **** 	(uint8 CYXDATA *)CYREG_PRT4_AG, (uint8 CYXDATA *)CYREG_DSM0_SW0, 
 336:.\Generated_Source\PSoC5/cyfitter_cfg.c **** };
 337:.\Generated_Source\PSoC5/cyfitter_cfg.c **** 
 338:.\Generated_Source\PSoC5/cyfitter_cfg.c **** /* This is an implementation detail of the AMux. Code that depends on it may be
 339:.\Generated_Source\PSoC5/cyfitter_cfg.c ****    incompatible with other versions of PSoC Creator. */
 340:.\Generated_Source\PSoC5/cyfitter_cfg.c **** const uint8 CYCODE AMux_1__maskTable[8] = {
 341:.\Generated_Source\PSoC5/cyfitter_cfg.c **** 	0x20u, 0x02u, 
 342:.\Generated_Source\PSoC5/cyfitter_cfg.c **** 	0x01u, 0x10u, 
 343:.\Generated_Source\PSoC5/cyfitter_cfg.c **** 	0x02u, 0x20u, 
 344:.\Generated_Source\PSoC5/cyfitter_cfg.c **** 	0x04u, 0x40u, 
 345:.\Generated_Source\PSoC5/cyfitter_cfg.c **** };
 346:.\Generated_Source\PSoC5/cyfitter_cfg.c **** 
 347:.\Generated_Source\PSoC5/cyfitter_cfg.c **** /*******************************************************************************
 348:.\Generated_Source\PSoC5/cyfitter_cfg.c **** * Function Name: AMux_1_Set
 349:.\Generated_Source\PSoC5/cyfitter_cfg.c **** ********************************************************************************
 350:.\Generated_Source\PSoC5/cyfitter_cfg.c **** * Summary:
 351:.\Generated_Source\PSoC5/cyfitter_cfg.c **** *  This function is used to set a particular channel as active on the AMux.
 352:.\Generated_Source\PSoC5/cyfitter_cfg.c **** *
 353:.\Generated_Source\PSoC5/cyfitter_cfg.c **** * Parameters:  
 354:.\Generated_Source\PSoC5/cyfitter_cfg.c **** *   channel - The mux channel input to set as active
 355:.\Generated_Source\PSoC5/cyfitter_cfg.c **** *
 356:.\Generated_Source\PSoC5/cyfitter_cfg.c **** * Return:
 357:.\Generated_Source\PSoC5/cyfitter_cfg.c **** *   void
 358:.\Generated_Source\PSoC5/cyfitter_cfg.c **** *
 359:.\Generated_Source\PSoC5/cyfitter_cfg.c **** *******************************************************************************/
 360:.\Generated_Source\PSoC5/cyfitter_cfg.c **** void AMux_1_Set(uint8 channel)
 361:.\Generated_Source\PSoC5/cyfitter_cfg.c **** {
 436              		.loc 1 361 0
 437              		.cfi_startproc
 438              		@ args = 0, pretend = 0, frame = 0
 439              		@ frame_needed = 0, uses_anonymous_args = 0
 440              		@ link register save eliminated.
 362:.\Generated_Source\PSoC5/cyfitter_cfg.c **** 	if (channel < 4)
 441              		.loc 1 362 0
 442 0000 0328     		cmp	r0, #3
 443 0002 17D8     		bhi	.L33
 361:.\Generated_Source\PSoC5/cyfitter_cfg.c **** 	if (channel < 4)
 444              		.loc 1 361 0
 445 0004 10B4     		push	{r4}
 446              		.cfi_def_cfa_offset 4
 447              		.cfi_offset 4, -4
 363:.\Generated_Source\PSoC5/cyfitter_cfg.c **** 	{
 364:.\Generated_Source\PSoC5/cyfitter_cfg.c **** 		channel += channel;
ARM GAS  C:\Users\student\AppData\Local\Temp\cc4gFqWM.s 			page 16


 448              		.loc 1 364 0
 449 0006 4000     		lsls	r0, r0, #1
 450 0008 C0B2     		uxtb	r0, r0
 365:.\Generated_Source\PSoC5/cyfitter_cfg.c **** 		*AMux_1__addrTable[channel] |= AMux_1__maskTable[channel];
 451              		.loc 1 365 0
 452 000a 0B4B     		ldr	r3, .L34
 453 000c 53F82010 		ldr	r1, [r3, r0, lsl #2]
 454 0010 1A18     		adds	r2, r3, r0
 455 0012 92F82040 		ldrb	r4, [r2, #32]	@ zero_extendqisi2
 456 0016 0A78     		ldrb	r2, [r1]	@ zero_extendqisi2
 457 0018 2243     		orrs	r2, r2, r4
 458 001a 0A70     		strb	r2, [r1]
 366:.\Generated_Source\PSoC5/cyfitter_cfg.c **** 		channel++;
 459              		.loc 1 366 0
 460 001c 0130     		adds	r0, r0, #1
 461 001e C0B2     		uxtb	r0, r0
 367:.\Generated_Source\PSoC5/cyfitter_cfg.c **** 		*AMux_1__addrTable[channel] |= AMux_1__maskTable[channel];
 462              		.loc 1 367 0
 463 0020 53F82020 		ldr	r2, [r3, r0, lsl #2]
 464 0024 1844     		add	r0, r0, r3
 465 0026 90F82010 		ldrb	r1, [r0, #32]	@ zero_extendqisi2
 466 002a 1378     		ldrb	r3, [r2]	@ zero_extendqisi2
 467 002c 0B43     		orrs	r3, r3, r1
 468 002e 1370     		strb	r3, [r2]
 368:.\Generated_Source\PSoC5/cyfitter_cfg.c **** 	}
 369:.\Generated_Source\PSoC5/cyfitter_cfg.c **** }
 469              		.loc 1 369 0
 470 0030 5DF8044B 		ldr	r4, [sp], #4
 471              		.cfi_restore 4
 472              		.cfi_def_cfa_offset 0
 473              	.L33:
 474 0034 7047     		bx	lr
 475              	.L35:
 476 0036 00BF     		.align	2
 477              	.L34:
 478 0038 00000000 		.word	.LANCHOR0
 479              		.cfi_endproc
 480              	.LFE8:
 481              		.size	AMux_1_Set, .-AMux_1_Set
 482              		.section	.text.AMux_1_Unset,"ax",%progbits
 483              		.align	2
 484              		.global	AMux_1_Unset
 485              		.thumb
 486              		.thumb_func
 487              		.type	AMux_1_Unset, %function
 488              	AMux_1_Unset:
 489              	.LFB9:
 370:.\Generated_Source\PSoC5/cyfitter_cfg.c **** 
 371:.\Generated_Source\PSoC5/cyfitter_cfg.c **** /*******************************************************************************
 372:.\Generated_Source\PSoC5/cyfitter_cfg.c **** * Function Name: AMux_1_Unset
 373:.\Generated_Source\PSoC5/cyfitter_cfg.c **** ********************************************************************************
 374:.\Generated_Source\PSoC5/cyfitter_cfg.c **** * Summary:
 375:.\Generated_Source\PSoC5/cyfitter_cfg.c **** *  This function is used to clear a particular channel from being active on the
 376:.\Generated_Source\PSoC5/cyfitter_cfg.c **** *  AMux.
 377:.\Generated_Source\PSoC5/cyfitter_cfg.c **** *
 378:.\Generated_Source\PSoC5/cyfitter_cfg.c **** * Parameters:  
 379:.\Generated_Source\PSoC5/cyfitter_cfg.c **** *   channel - The mux channel input to mark inactive
ARM GAS  C:\Users\student\AppData\Local\Temp\cc4gFqWM.s 			page 17


 380:.\Generated_Source\PSoC5/cyfitter_cfg.c **** *
 381:.\Generated_Source\PSoC5/cyfitter_cfg.c **** * Return:
 382:.\Generated_Source\PSoC5/cyfitter_cfg.c **** *   void
 383:.\Generated_Source\PSoC5/cyfitter_cfg.c **** *
 384:.\Generated_Source\PSoC5/cyfitter_cfg.c **** *******************************************************************************/
 385:.\Generated_Source\PSoC5/cyfitter_cfg.c **** void AMux_1_Unset(uint8 channel)
 386:.\Generated_Source\PSoC5/cyfitter_cfg.c **** {
 490              		.loc 1 386 0
 491              		.cfi_startproc
 492              		@ args = 0, pretend = 0, frame = 0
 493              		@ frame_needed = 0, uses_anonymous_args = 0
 494              		@ link register save eliminated.
 387:.\Generated_Source\PSoC5/cyfitter_cfg.c **** 	if (channel < 4)
 495              		.loc 1 387 0
 496 0000 0328     		cmp	r0, #3
 497 0002 19D8     		bhi	.L40
 386:.\Generated_Source\PSoC5/cyfitter_cfg.c **** 	if (channel < 4)
 498              		.loc 1 386 0
 499 0004 10B4     		push	{r4}
 500              		.cfi_def_cfa_offset 4
 501              		.cfi_offset 4, -4
 388:.\Generated_Source\PSoC5/cyfitter_cfg.c **** 	{
 389:.\Generated_Source\PSoC5/cyfitter_cfg.c **** 		channel += channel;
 502              		.loc 1 389 0
 503 0006 4000     		lsls	r0, r0, #1
 504 0008 C0B2     		uxtb	r0, r0
 390:.\Generated_Source\PSoC5/cyfitter_cfg.c **** 		*AMux_1__addrTable[channel] &= (uint8)~AMux_1__maskTable[channel];
 505              		.loc 1 390 0
 506 000a 0C4B     		ldr	r3, .L41
 507 000c 53F82010 		ldr	r1, [r3, r0, lsl #2]
 508 0010 1A18     		adds	r2, r3, r0
 509 0012 92F82040 		ldrb	r4, [r2, #32]	@ zero_extendqisi2
 510 0016 0A78     		ldrb	r2, [r1]	@ zero_extendqisi2
 511 0018 22EA0402 		bic	r2, r2, r4
 512 001c 0A70     		strb	r2, [r1]
 391:.\Generated_Source\PSoC5/cyfitter_cfg.c **** 		channel++;
 513              		.loc 1 391 0
 514 001e 0130     		adds	r0, r0, #1
 515 0020 C0B2     		uxtb	r0, r0
 392:.\Generated_Source\PSoC5/cyfitter_cfg.c **** 		*AMux_1__addrTable[channel] &= (uint8)~AMux_1__maskTable[channel];
 516              		.loc 1 392 0
 517 0022 53F82020 		ldr	r2, [r3, r0, lsl #2]
 518 0026 1844     		add	r0, r0, r3
 519 0028 90F82010 		ldrb	r1, [r0, #32]	@ zero_extendqisi2
 520 002c 1378     		ldrb	r3, [r2]	@ zero_extendqisi2
 521 002e 23EA0103 		bic	r3, r3, r1
 522 0032 1370     		strb	r3, [r2]
 393:.\Generated_Source\PSoC5/cyfitter_cfg.c **** 	}
 394:.\Generated_Source\PSoC5/cyfitter_cfg.c **** }
 523              		.loc 1 394 0
 524 0034 5DF8044B 		ldr	r4, [sp], #4
 525              		.cfi_restore 4
 526              		.cfi_def_cfa_offset 0
 527              	.L40:
 528 0038 7047     		bx	lr
 529              	.L42:
 530 003a 00BF     		.align	2
ARM GAS  C:\Users\student\AppData\Local\Temp\cc4gFqWM.s 			page 18


 531              	.L41:
 532 003c 00000000 		.word	.LANCHOR0
 533              		.cfi_endproc
 534              	.LFE9:
 535              		.size	AMux_1_Unset, .-AMux_1_Unset
 536              		.section	.text.ADC_DelSig_1_AMux_Set,"ax",%progbits
 537              		.align	2
 538              		.global	ADC_DelSig_1_AMux_Set
 539              		.thumb
 540              		.thumb_func
 541              		.type	ADC_DelSig_1_AMux_Set, %function
 542              	ADC_DelSig_1_AMux_Set:
 543              	.LFB10:
 395:.\Generated_Source\PSoC5/cyfitter_cfg.c **** 
 396:.\Generated_Source\PSoC5/cyfitter_cfg.c **** /* This is an implementation detail of the AMux. Code that depends on it may be
 397:.\Generated_Source\PSoC5/cyfitter_cfg.c ****    incompatible with other versions of PSoC Creator. */
 398:.\Generated_Source\PSoC5/cyfitter_cfg.c **** uint8 CYXDATA * const CYCODE ADC_DelSig_1_AMux__addrTable[2] = {
 399:.\Generated_Source\PSoC5/cyfitter_cfg.c **** 	(uint8 CYXDATA *)CYREG_DSM0_SW3, 
 400:.\Generated_Source\PSoC5/cyfitter_cfg.c **** 	(uint8 CYXDATA *)CY_AMUX_UNUSED, 
 401:.\Generated_Source\PSoC5/cyfitter_cfg.c **** };
 402:.\Generated_Source\PSoC5/cyfitter_cfg.c **** 
 403:.\Generated_Source\PSoC5/cyfitter_cfg.c **** /* This is an implementation detail of the AMux. Code that depends on it may be
 404:.\Generated_Source\PSoC5/cyfitter_cfg.c ****    incompatible with other versions of PSoC Creator. */
 405:.\Generated_Source\PSoC5/cyfitter_cfg.c **** const uint8 CYCODE ADC_DelSig_1_AMux__maskTable[2] = {
 406:.\Generated_Source\PSoC5/cyfitter_cfg.c **** 	0x40u, 
 407:.\Generated_Source\PSoC5/cyfitter_cfg.c **** 	0x00u, 
 408:.\Generated_Source\PSoC5/cyfitter_cfg.c **** };
 409:.\Generated_Source\PSoC5/cyfitter_cfg.c **** 
 410:.\Generated_Source\PSoC5/cyfitter_cfg.c **** /*******************************************************************************
 411:.\Generated_Source\PSoC5/cyfitter_cfg.c **** * Function Name: ADC_DelSig_1_AMux_Set
 412:.\Generated_Source\PSoC5/cyfitter_cfg.c **** ********************************************************************************
 413:.\Generated_Source\PSoC5/cyfitter_cfg.c **** * Summary:
 414:.\Generated_Source\PSoC5/cyfitter_cfg.c **** *  This function is used to set a particular channel as active on the AMux.
 415:.\Generated_Source\PSoC5/cyfitter_cfg.c **** *
 416:.\Generated_Source\PSoC5/cyfitter_cfg.c **** * Parameters:  
 417:.\Generated_Source\PSoC5/cyfitter_cfg.c **** *   channel - The mux channel input to set as active
 418:.\Generated_Source\PSoC5/cyfitter_cfg.c **** *
 419:.\Generated_Source\PSoC5/cyfitter_cfg.c **** * Return:
 420:.\Generated_Source\PSoC5/cyfitter_cfg.c **** *   void
 421:.\Generated_Source\PSoC5/cyfitter_cfg.c **** *
 422:.\Generated_Source\PSoC5/cyfitter_cfg.c **** *******************************************************************************/
 423:.\Generated_Source\PSoC5/cyfitter_cfg.c **** void ADC_DelSig_1_AMux_Set(uint8 channel)
 424:.\Generated_Source\PSoC5/cyfitter_cfg.c **** {
 544              		.loc 1 424 0
 545              		.cfi_startproc
 546              		@ args = 0, pretend = 0, frame = 0
 547              		@ frame_needed = 0, uses_anonymous_args = 0
 548              		@ link register save eliminated.
 549              	.LVL32:
 425:.\Generated_Source\PSoC5/cyfitter_cfg.c **** 	if (channel < 2)
 550              		.loc 1 425 0
 551 0000 0128     		cmp	r0, #1
 552 0002 09D8     		bhi	.L43
 426:.\Generated_Source\PSoC5/cyfitter_cfg.c **** 	{
 427:.\Generated_Source\PSoC5/cyfitter_cfg.c **** 		*ADC_DelSig_1_AMux__addrTable[channel] |= ADC_DelSig_1_AMux__maskTable[channel];
 553              		.loc 1 427 0
 554 0004 054B     		ldr	r3, .L45
ARM GAS  C:\Users\student\AppData\Local\Temp\cc4gFqWM.s 			page 19


 555 0006 03EB8002 		add	r2, r3, r0, lsl #2
 556 000a 926A     		ldr	r2, [r2, #40]
 557 000c 1844     		add	r0, r0, r3
 558              	.LVL33:
 559 000e 90F83010 		ldrb	r1, [r0, #48]	@ zero_extendqisi2
 560 0012 1378     		ldrb	r3, [r2]	@ zero_extendqisi2
 561 0014 0B43     		orrs	r3, r3, r1
 562 0016 1370     		strb	r3, [r2]
 563              	.L43:
 564 0018 7047     		bx	lr
 565              	.L46:
 566 001a 00BF     		.align	2
 567              	.L45:
 568 001c 00000000 		.word	.LANCHOR0
 569              		.cfi_endproc
 570              	.LFE10:
 571              		.size	ADC_DelSig_1_AMux_Set, .-ADC_DelSig_1_AMux_Set
 572              		.section	.text.ADC_DelSig_1_AMux_Unset,"ax",%progbits
 573              		.align	2
 574              		.global	ADC_DelSig_1_AMux_Unset
 575              		.thumb
 576              		.thumb_func
 577              		.type	ADC_DelSig_1_AMux_Unset, %function
 578              	ADC_DelSig_1_AMux_Unset:
 579              	.LFB11:
 428:.\Generated_Source\PSoC5/cyfitter_cfg.c **** 	}
 429:.\Generated_Source\PSoC5/cyfitter_cfg.c **** }
 430:.\Generated_Source\PSoC5/cyfitter_cfg.c **** 
 431:.\Generated_Source\PSoC5/cyfitter_cfg.c **** /*******************************************************************************
 432:.\Generated_Source\PSoC5/cyfitter_cfg.c **** * Function Name: ADC_DelSig_1_AMux_Unset
 433:.\Generated_Source\PSoC5/cyfitter_cfg.c **** ********************************************************************************
 434:.\Generated_Source\PSoC5/cyfitter_cfg.c **** * Summary:
 435:.\Generated_Source\PSoC5/cyfitter_cfg.c **** *  This function is used to clear a particular channel from being active on the
 436:.\Generated_Source\PSoC5/cyfitter_cfg.c **** *  AMux.
 437:.\Generated_Source\PSoC5/cyfitter_cfg.c **** *
 438:.\Generated_Source\PSoC5/cyfitter_cfg.c **** * Parameters:  
 439:.\Generated_Source\PSoC5/cyfitter_cfg.c **** *   channel - The mux channel input to mark inactive
 440:.\Generated_Source\PSoC5/cyfitter_cfg.c **** *
 441:.\Generated_Source\PSoC5/cyfitter_cfg.c **** * Return:
 442:.\Generated_Source\PSoC5/cyfitter_cfg.c **** *   void
 443:.\Generated_Source\PSoC5/cyfitter_cfg.c **** *
 444:.\Generated_Source\PSoC5/cyfitter_cfg.c **** *******************************************************************************/
 445:.\Generated_Source\PSoC5/cyfitter_cfg.c **** void ADC_DelSig_1_AMux_Unset(uint8 channel)
 446:.\Generated_Source\PSoC5/cyfitter_cfg.c **** {
 580              		.loc 1 446 0
 581              		.cfi_startproc
 582              		@ args = 0, pretend = 0, frame = 0
 583              		@ frame_needed = 0, uses_anonymous_args = 0
 584              		@ link register save eliminated.
 585              	.LVL34:
 447:.\Generated_Source\PSoC5/cyfitter_cfg.c **** 	if (channel < 2)
 586              		.loc 1 447 0
 587 0000 0128     		cmp	r0, #1
 588 0002 0AD8     		bhi	.L47
 448:.\Generated_Source\PSoC5/cyfitter_cfg.c **** 	{
 449:.\Generated_Source\PSoC5/cyfitter_cfg.c **** 		*ADC_DelSig_1_AMux__addrTable[channel] &= (uint8)~ADC_DelSig_1_AMux__maskTable[channel];
 589              		.loc 1 449 0
ARM GAS  C:\Users\student\AppData\Local\Temp\cc4gFqWM.s 			page 20


 590 0004 054B     		ldr	r3, .L49
 591 0006 03EB8002 		add	r2, r3, r0, lsl #2
 592 000a 926A     		ldr	r2, [r2, #40]
 593 000c 1844     		add	r0, r0, r3
 594              	.LVL35:
 595 000e 90F83010 		ldrb	r1, [r0, #48]	@ zero_extendqisi2
 596 0012 1378     		ldrb	r3, [r2]	@ zero_extendqisi2
 597 0014 23EA0103 		bic	r3, r3, r1
 598 0018 1370     		strb	r3, [r2]
 599              	.L47:
 600 001a 7047     		bx	lr
 601              	.L50:
 602              		.align	2
 603              	.L49:
 604 001c 00000000 		.word	.LANCHOR0
 605              		.cfi_endproc
 606              	.LFE11:
 607              		.size	ADC_DelSig_1_AMux_Unset, .-ADC_DelSig_1_AMux_Unset
 608              		.section	.text.cyfitter_cfg,"ax",%progbits
 609              		.align	2
 610              		.global	cyfitter_cfg
 611              		.thumb
 612              		.thumb_func
 613              		.type	cyfitter_cfg, %function
 614              	cyfitter_cfg:
 615              	.LFB12:
 450:.\Generated_Source\PSoC5/cyfitter_cfg.c **** 	}
 451:.\Generated_Source\PSoC5/cyfitter_cfg.c **** }
 452:.\Generated_Source\PSoC5/cyfitter_cfg.c **** 
 453:.\Generated_Source\PSoC5/cyfitter_cfg.c **** 
 454:.\Generated_Source\PSoC5/cyfitter_cfg.c **** 
 455:.\Generated_Source\PSoC5/cyfitter_cfg.c **** /*******************************************************************************
 456:.\Generated_Source\PSoC5/cyfitter_cfg.c **** * Function Name: cyfitter_cfg
 457:.\Generated_Source\PSoC5/cyfitter_cfg.c **** ********************************************************************************
 458:.\Generated_Source\PSoC5/cyfitter_cfg.c **** * Summary:
 459:.\Generated_Source\PSoC5/cyfitter_cfg.c **** *  This function is called by the start-up code for the selected device. It
 460:.\Generated_Source\PSoC5/cyfitter_cfg.c **** *  performs all of the necessary device configuration based on the design
 461:.\Generated_Source\PSoC5/cyfitter_cfg.c **** *  settings.  This includes settings from the Design Wide Resources (DWR) such
 462:.\Generated_Source\PSoC5/cyfitter_cfg.c **** *  as Clocks and Pins as well as any component configuration that is necessary.
 463:.\Generated_Source\PSoC5/cyfitter_cfg.c **** *
 464:.\Generated_Source\PSoC5/cyfitter_cfg.c **** * Parameters:  
 465:.\Generated_Source\PSoC5/cyfitter_cfg.c **** *   void
 466:.\Generated_Source\PSoC5/cyfitter_cfg.c **** *
 467:.\Generated_Source\PSoC5/cyfitter_cfg.c **** * Return:
 468:.\Generated_Source\PSoC5/cyfitter_cfg.c **** *   void
 469:.\Generated_Source\PSoC5/cyfitter_cfg.c **** *
 470:.\Generated_Source\PSoC5/cyfitter_cfg.c **** *******************************************************************************/
 471:.\Generated_Source\PSoC5/cyfitter_cfg.c **** 
 472:.\Generated_Source\PSoC5/cyfitter_cfg.c **** void cyfitter_cfg(void)
 473:.\Generated_Source\PSoC5/cyfitter_cfg.c **** {
 616              		.loc 1 473 0
 617              		.cfi_startproc
 618              		@ args = 0, pretend = 0, frame = 0
 619              		@ frame_needed = 0, uses_anonymous_args = 0
 620 0000 70B5     		push	{r4, r5, r6, lr}
 621              		.cfi_def_cfa_offset 16
 622              		.cfi_offset 4, -16
ARM GAS  C:\Users\student\AppData\Local\Temp\cc4gFqWM.s 			page 21


 623              		.cfi_offset 5, -12
 624              		.cfi_offset 6, -8
 625              		.cfi_offset 14, -4
 474:.\Generated_Source\PSoC5/cyfitter_cfg.c **** #ifdef CYGlobalIntDisable
 475:.\Generated_Source\PSoC5/cyfitter_cfg.c **** 	/* Disable interrupts by default. Let user enable if/when they want. */
 476:.\Generated_Source\PSoC5/cyfitter_cfg.c **** 	CYGlobalIntDisable
 626              		.loc 1 476 0
 627              	@ 476 ".\Generated_Source\PSoC5\cyfitter_cfg.c" 1
 628 0002 72B6     		CPSID   i
 629              	@ 0 "" 2
 477:.\Generated_Source\PSoC5/cyfitter_cfg.c **** #endif
 478:.\Generated_Source\PSoC5/cyfitter_cfg.c **** 
 479:.\Generated_Source\PSoC5/cyfitter_cfg.c **** 	/* Enable/Disable Debug functionality based on settings from System DWR */
 480:.\Generated_Source\PSoC5/cyfitter_cfg.c **** 	CY_SET_XTND_REG8((void CYFAR *)CYREG_MLOGIC_DEBUG, (CY_GET_XTND_REG8((void CYFAR *)CYREG_MLOGIC_DE
 630              		.loc 1 480 0
 631              		.thumb
 632 0004 384A     		ldr	r2, .L57
 633 0006 1378     		ldrb	r3, [r2]	@ zero_extendqisi2
 634 0008 43F00403 		orr	r3, r3, #4
 635 000c 1370     		strb	r3, [r2]
 636              	.LVL36:
 637              	.LBB3:
 481:.\Generated_Source\PSoC5/cyfitter_cfg.c **** 
 482:.\Generated_Source\PSoC5/cyfitter_cfg.c **** 	{
 483:.\Generated_Source\PSoC5/cyfitter_cfg.c **** 
 484:.\Generated_Source\PSoC5/cyfitter_cfg.c **** 		CYPACKED typedef struct {
 485:.\Generated_Source\PSoC5/cyfitter_cfg.c **** 			void CYFAR *address;
 486:.\Generated_Source\PSoC5/cyfitter_cfg.c **** 			uint16 size;
 487:.\Generated_Source\PSoC5/cyfitter_cfg.c **** 		} CYPACKED_ATTR cfg_memset_t;
 488:.\Generated_Source\PSoC5/cyfitter_cfg.c **** 
 489:.\Generated_Source\PSoC5/cyfitter_cfg.c **** 
 490:.\Generated_Source\PSoC5/cyfitter_cfg.c **** 		CYPACKED typedef struct {
 491:.\Generated_Source\PSoC5/cyfitter_cfg.c **** 			void CYFAR *dest;
 492:.\Generated_Source\PSoC5/cyfitter_cfg.c **** 			const void CYFAR *src;
 493:.\Generated_Source\PSoC5/cyfitter_cfg.c **** 			uint16 size;
 494:.\Generated_Source\PSoC5/cyfitter_cfg.c **** 		} CYPACKED_ATTR cfg_memcpy_t;
 495:.\Generated_Source\PSoC5/cyfitter_cfg.c **** 
 496:.\Generated_Source\PSoC5/cyfitter_cfg.c **** 		static const cfg_memset_t CYCODE cfg_memset_list [] = {
 497:.\Generated_Source\PSoC5/cyfitter_cfg.c **** 			/* address, size */
 498:.\Generated_Source\PSoC5/cyfitter_cfg.c **** 			{(void CYFAR *)(CYREG_TMR0_CFG0), 12u},
 499:.\Generated_Source\PSoC5/cyfitter_cfg.c **** 			{(void CYFAR *)(CYREG_PRT0_DR), 32u},
 500:.\Generated_Source\PSoC5/cyfitter_cfg.c **** 			{(void CYFAR *)(CYREG_PRT3_DR), 16u},
 501:.\Generated_Source\PSoC5/cyfitter_cfg.c **** 			{(void CYFAR *)(CYREG_PRT5_DR), 16u},
 502:.\Generated_Source\PSoC5/cyfitter_cfg.c **** 			{(void CYFAR *)(CYDEV_UCFG_B0_P0_U0_BASE), 3584u},
 503:.\Generated_Source\PSoC5/cyfitter_cfg.c **** 			{(void CYFAR *)(CYDEV_UCFG_B0_P7_U1_BASE), 384u},
 504:.\Generated_Source\PSoC5/cyfitter_cfg.c **** 			{(void CYFAR *)(CYDEV_UCFG_B1_P2_U0_BASE), 2048u},
 505:.\Generated_Source\PSoC5/cyfitter_cfg.c **** 			{(void CYFAR *)(CYDEV_UCFG_DSI0_BASE), 2560u},
 506:.\Generated_Source\PSoC5/cyfitter_cfg.c **** 			{(void CYFAR *)(CYDEV_UCFG_DSI12_BASE), 512u},
 507:.\Generated_Source\PSoC5/cyfitter_cfg.c **** 			{(void CYFAR *)(CYREG_BCTL0_MDCLK_EN), 32u},
 508:.\Generated_Source\PSoC5/cyfitter_cfg.c **** 		};
 509:.\Generated_Source\PSoC5/cyfitter_cfg.c **** 
 510:.\Generated_Source\PSoC5/cyfitter_cfg.c **** 		static const cfg_memcpy_t CYCODE cfg_memcpy_list [] = {
 511:.\Generated_Source\PSoC5/cyfitter_cfg.c **** 			/* dest, src, size */
 512:.\Generated_Source\PSoC5/cyfitter_cfg.c **** 			{(void CYFAR *)(CYDEV_UCFG_B0_P7_U0_BASE), BS_UDB_0_5_0_CONFIG_VAL, 128u},
 513:.\Generated_Source\PSoC5/cyfitter_cfg.c **** 		};
 514:.\Generated_Source\PSoC5/cyfitter_cfg.c **** 
 515:.\Generated_Source\PSoC5/cyfitter_cfg.c **** 		uint8 CYDATA i;
ARM GAS  C:\Users\student\AppData\Local\Temp\cc4gFqWM.s 			page 22


 516:.\Generated_Source\PSoC5/cyfitter_cfg.c **** 
 517:.\Generated_Source\PSoC5/cyfitter_cfg.c **** 		/* Zero out critical memory blocks before beginning configuration */
 518:.\Generated_Source\PSoC5/cyfitter_cfg.c **** 		for (i = 0u; i < (sizeof(cfg_memset_list)/sizeof(cfg_memset_list[0])); i++)
 638              		.loc 1 518 0
 639 000e 0024     		movs	r4, #0
 640 0010 0AE0     		b	.L52
 641              	.LVL37:
 642              	.L53:
 643              	.LBB4:
 519:.\Generated_Source\PSoC5/cyfitter_cfg.c **** 		{
 520:.\Generated_Source\PSoC5/cyfitter_cfg.c **** 			const cfg_memset_t CYCODE * CYDATA ms = &cfg_memset_list[i];
 521:.\Generated_Source\PSoC5/cyfitter_cfg.c **** 			CYMEMZERO(ms->address, (size_t)(uint32)(ms->size));
 644              		.loc 1 521 0 discriminator 3
 645 0012 3649     		ldr	r1, .L57+4
 646 0014 6300     		lsls	r3, r4, #1
 647 0016 1A19     		adds	r2, r3, r4
 648 0018 5200     		lsls	r2, r2, #1
 649 001a 0A44     		add	r2, r2, r1
 650 001c 506B     		ldr	r0, [r2, #52]	@ unaligned
 651 001e 118F     		ldrh	r1, [r2, #56]
 652 0020 FFF7FEFF 		bl	CYMEMZERO
 653              	.LVL38:
 654              	.LBE4:
 518:.\Generated_Source\PSoC5/cyfitter_cfg.c **** 		{
 655              		.loc 1 518 0 discriminator 3
 656 0024 0134     		adds	r4, r4, #1
 657              	.LVL39:
 658 0026 E4B2     		uxtb	r4, r4
 659              	.LVL40:
 660              	.L52:
 518:.\Generated_Source\PSoC5/cyfitter_cfg.c **** 		{
 661              		.loc 1 518 0 is_stmt 0 discriminator 1
 662 0028 092C     		cmp	r4, #9
 663 002a F2D9     		bls	.L53
 664 002c 0024     		movs	r4, #0
 665              	.LVL41:
 666 002e 0BE0     		b	.L54
 667              	.LVL42:
 668              	.L55:
 669              	.LBB5:
 522:.\Generated_Source\PSoC5/cyfitter_cfg.c **** 		}
 523:.\Generated_Source\PSoC5/cyfitter_cfg.c **** 
 524:.\Generated_Source\PSoC5/cyfitter_cfg.c **** 		/* Copy device configuration data into registers */
 525:.\Generated_Source\PSoC5/cyfitter_cfg.c **** 		for (i = 0u; i < (sizeof(cfg_memcpy_list)/sizeof(cfg_memcpy_list[0])); i++)
 526:.\Generated_Source\PSoC5/cyfitter_cfg.c **** 		{
 527:.\Generated_Source\PSoC5/cyfitter_cfg.c **** 			const cfg_memcpy_t CYCODE * CYDATA mc = &cfg_memcpy_list[i];
 528:.\Generated_Source\PSoC5/cyfitter_cfg.c **** 			void * CYDATA destPtr = mc->dest;
 670              		.loc 1 528 0 is_stmt 1 discriminator 3
 671 0030 2E49     		ldr	r1, .L57+4
 672 0032 A300     		lsls	r3, r4, #2
 673 0034 1A19     		adds	r2, r3, r4
 674 0036 5200     		lsls	r2, r2, #1
 675 0038 0A44     		add	r2, r2, r1
 676              	.LVL43:
 529:.\Generated_Source\PSoC5/cyfitter_cfg.c **** 			const void * CYDATA srcPtr = mc->src;
 530:.\Generated_Source\PSoC5/cyfitter_cfg.c **** 			uint16 CYDATA numBytes = mc->size;
 531:.\Generated_Source\PSoC5/cyfitter_cfg.c **** 			CYCONFIGCPY(destPtr, srcPtr, numBytes);
ARM GAS  C:\Users\student\AppData\Local\Temp\cc4gFqWM.s 			page 23


 677              		.loc 1 531 0 discriminator 3
 678 003a 106F     		ldr	r0, [r2, #112]	@ unaligned
 679              	.LVL44:
 680 003c 516F     		ldr	r1, [r2, #116]	@ unaligned
 681              	.LVL45:
 682 003e 8022     		movs	r2, #128
 683 0040 FFF7FEFF 		bl	CYCONFIGCPY
 684              	.LVL46:
 685              	.LBE5:
 525:.\Generated_Source\PSoC5/cyfitter_cfg.c **** 		{
 686              		.loc 1 525 0 discriminator 3
 687 0044 0134     		adds	r4, r4, #1
 688              	.LVL47:
 689 0046 E4B2     		uxtb	r4, r4
 690              	.LVL48:
 691              	.L54:
 525:.\Generated_Source\PSoC5/cyfitter_cfg.c **** 		{
 692              		.loc 1 525 0 is_stmt 0 discriminator 1
 693 0048 002C     		cmp	r4, #0
 694 004a F1D0     		beq	.L55
 532:.\Generated_Source\PSoC5/cyfitter_cfg.c **** 		}
 533:.\Generated_Source\PSoC5/cyfitter_cfg.c **** 
 534:.\Generated_Source\PSoC5/cyfitter_cfg.c **** 		cfg_write_bytes32(cy_cfg_addr_table, cy_cfg_data_table);
 695              		.loc 1 534 0 is_stmt 1
 696 004c 4FF09040 		mov	r0, #1207959552
 697 0050 2749     		ldr	r1, .L57+8
 698 0052 FFF7FEFF 		bl	cfg_write_bytes32
 699              	.LVL49:
 535:.\Generated_Source\PSoC5/cyfitter_cfg.c **** 
 536:.\Generated_Source\PSoC5/cyfitter_cfg.c **** 		/* Perform normal device configuration. Order is not critical for these items. */
 537:.\Generated_Source\PSoC5/cyfitter_cfg.c **** 		CY_SET_XTND_REG8((void CYFAR *)(CYREG_DSM0_CR3), 0x0Au);
 700              		.loc 1 537 0
 701 0056 0A25     		movs	r5, #10
 702 0058 264B     		ldr	r3, .L57+12
 703 005a 1D70     		strb	r5, [r3]
 538:.\Generated_Source\PSoC5/cyfitter_cfg.c **** 
 539:.\Generated_Source\PSoC5/cyfitter_cfg.c **** 		/* Enable digital routing */
 540:.\Generated_Source\PSoC5/cyfitter_cfg.c **** 		CY_SET_XTND_REG8((void CYFAR *)CYREG_BCTL0_BANK_CTL, CY_GET_XTND_REG8((void CYFAR *)CYREG_BCTL0_B
 704              		.loc 1 540 0
 705 005c 264A     		ldr	r2, .L57+16
 706 005e 1378     		ldrb	r3, [r2]	@ zero_extendqisi2
 707 0060 43F00203 		orr	r3, r3, #2
 708 0064 1370     		strb	r3, [r2]
 541:.\Generated_Source\PSoC5/cyfitter_cfg.c **** 		CY_SET_XTND_REG8((void CYFAR *)CYREG_BCTL1_BANK_CTL, CY_GET_XTND_REG8((void CYFAR *)CYREG_BCTL1_B
 709              		.loc 1 541 0
 710 0066 1032     		adds	r2, r2, #16
 711 0068 1378     		ldrb	r3, [r2]	@ zero_extendqisi2
 712 006a 43F00203 		orr	r3, r3, #2
 713 006e 1370     		strb	r3, [r2]
 542:.\Generated_Source\PSoC5/cyfitter_cfg.c **** 
 543:.\Generated_Source\PSoC5/cyfitter_cfg.c **** 		/* Enable UDB array */
 544:.\Generated_Source\PSoC5/cyfitter_cfg.c **** 		CY_SET_XTND_REG8((void CYFAR *)CYREG_PM_ACT_CFG0, CY_GET_XTND_REG8((void CYFAR *)CYREG_PM_ACT_CFG
 714              		.loc 1 544 0
 715 0070 224C     		ldr	r4, .L57+20
 716              	.LVL50:
 717 0072 2378     		ldrb	r3, [r4]	@ zero_extendqisi2
 718 0074 43F04003 		orr	r3, r3, #64
ARM GAS  C:\Users\student\AppData\Local\Temp\cc4gFqWM.s 			page 24


 719 0078 2370     		strb	r3, [r4]
 545:.\Generated_Source\PSoC5/cyfitter_cfg.c **** 		CY_SET_XTND_REG8((void CYFAR *)CYREG_PM_AVAIL_CR2, CY_GET_XTND_REG8((void CYFAR *)CYREG_PM_AVAIL_
 720              		.loc 1 545 0
 721 007a A2F58632 		sub	r2, r2, #68608
 722 007e 513A     		subs	r2, r2, #81
 723 0080 1378     		ldrb	r3, [r2]	@ zero_extendqisi2
 724 0082 43F01003 		orr	r3, r3, #16
 725 0086 1370     		strb	r3, [r2]
 726              	.LBE3:
 546:.\Generated_Source\PSoC5/cyfitter_cfg.c **** 	}
 547:.\Generated_Source\PSoC5/cyfitter_cfg.c **** 
 548:.\Generated_Source\PSoC5/cyfitter_cfg.c **** 
 549:.\Generated_Source\PSoC5/cyfitter_cfg.c **** 	/* Perform second pass device configuration. These items must be configured in specific order afte
 550:.\Generated_Source\PSoC5/cyfitter_cfg.c **** 	CYCONFIGCPY((void CYFAR *)(CYREG_PRT12_DM0), (const void CYFAR *)(BS_IOPINS0_7_VAL), 8u);
 727              		.loc 1 550 0
 728 0088 1D48     		ldr	r0, .L57+24
 729 008a 1E49     		ldr	r1, .L57+28
 730 008c 0822     		movs	r2, #8
 731 008e FFF7FEFF 		bl	CYCONFIGCPY
 732              	.LVL51:
 551:.\Generated_Source\PSoC5/cyfitter_cfg.c **** 	CYCONFIGCPY((void CYFAR *)(CYREG_PRT15_DR), (const void CYFAR *)(BS_IOPINS0_8_VAL), 10u);
 733              		.loc 1 551 0
 734 0092 1D48     		ldr	r0, .L57+32
 735 0094 1D49     		ldr	r1, .L57+36
 736 0096 2A46     		mov	r2, r5
 737 0098 FFF7FEFF 		bl	CYCONFIGCPY
 738              	.LVL52:
 552:.\Generated_Source\PSoC5/cyfitter_cfg.c **** 	CYCONFIGCPY((void CYFAR *)(CYREG_PRT2_DM0), (const void CYFAR *)(BS_IOPINS0_2_VAL), 8u);
 739              		.loc 1 552 0
 740 009c 1C48     		ldr	r0, .L57+40
 741 009e 1D49     		ldr	r1, .L57+44
 742 00a0 0822     		movs	r2, #8
 743 00a2 FFF7FEFF 		bl	CYCONFIGCPY
 744              	.LVL53:
 553:.\Generated_Source\PSoC5/cyfitter_cfg.c **** 	CYCONFIGCPY((void CYFAR *)(CYREG_PRT4_DM0), (const void CYFAR *)(BS_IOPINS0_4_VAL), 8u);
 745              		.loc 1 553 0
 746 00a6 1C48     		ldr	r0, .L57+48
 747 00a8 1C49     		ldr	r1, .L57+52
 748 00aa 0822     		movs	r2, #8
 749 00ac FFF7FEFF 		bl	CYCONFIGCPY
 750              	.LVL54:
 554:.\Generated_Source\PSoC5/cyfitter_cfg.c **** 	CYCONFIGCPY((void CYFAR *)(CYREG_PRT6_DR), (const void CYFAR *)(BS_IOPINS0_6_VAL), 10u);
 751              		.loc 1 554 0
 752 00b0 1B48     		ldr	r0, .L57+56
 753 00b2 1C49     		ldr	r1, .L57+60
 754 00b4 2A46     		mov	r2, r5
 755 00b6 FFF7FEFF 		bl	CYCONFIGCPY
 756              	.LVL55:
 555:.\Generated_Source\PSoC5/cyfitter_cfg.c **** 	/* Switch Boost to the precision bandgap reference from its internal reference */
 556:.\Generated_Source\PSoC5/cyfitter_cfg.c **** 	CY_SET_REG8((void CYXDATA *)CYREG_BOOST_CR2, (CY_GET_REG8((void CYXDATA *)CYREG_BOOST_CR2) | 0x08u
 757              		.loc 1 556 0
 758 00ba 1B4A     		ldr	r2, .L57+64
 759 00bc 1378     		ldrb	r3, [r2]	@ zero_extendqisi2
 760 00be 43F00803 		orr	r3, r3, #8
 761 00c2 1370     		strb	r3, [r2]
 557:.\Generated_Source\PSoC5/cyfitter_cfg.c **** 
 558:.\Generated_Source\PSoC5/cyfitter_cfg.c **** 	/* Set Flash Cycles based on max possible frequency in case a glitch occurs during ClockSetup(). *
ARM GAS  C:\Users\student\AppData\Local\Temp\cc4gFqWM.s 			page 25


 559:.\Generated_Source\PSoC5/cyfitter_cfg.c **** 	CY_SET_XTND_REG8((void CYFAR *)(CYREG_CACHE_CC_CTL), (((CYDEV_INSTRUCT_CACHE_ENABLED) != 0) ? 0x01
 762              		.loc 1 559 0
 763 00c4 194E     		ldr	r6, .L57+68
 764 00c6 0125     		movs	r5, #1
 765 00c8 3570     		strb	r5, [r6]
 560:.\Generated_Source\PSoC5/cyfitter_cfg.c **** 	/* Setup clocks based on selections from Clock DWR */
 561:.\Generated_Source\PSoC5/cyfitter_cfg.c **** 	ClockSetup();
 766              		.loc 1 561 0
 767 00ca FFF7FEFF 		bl	ClockSetup
 768              	.LVL56:
 562:.\Generated_Source\PSoC5/cyfitter_cfg.c **** 	/* Set Flash Cycles based on newly configured 24.00MHz Bus Clock. */
 563:.\Generated_Source\PSoC5/cyfitter_cfg.c **** 	CY_SET_XTND_REG8((void CYFAR *)(CYREG_CACHE_CC_CTL), (((CYDEV_INSTRUCT_CACHE_ENABLED) != 0) ? 0x81
 769              		.loc 1 563 0
 770 00ce 8123     		movs	r3, #129
 771 00d0 3370     		strb	r3, [r6]
 564:.\Generated_Source\PSoC5/cyfitter_cfg.c **** 	CY_SET_XTND_REG8((void CYFAR *)(CYREG_PANTHER_WAITPIPE), 0x01u);
 772              		.loc 1 564 0
 773 00d2 174B     		ldr	r3, .L57+72
 774 00d4 1D70     		strb	r5, [r3]
 565:.\Generated_Source\PSoC5/cyfitter_cfg.c **** 
 566:.\Generated_Source\PSoC5/cyfitter_cfg.c **** 	/* Perform basic analog initialization to defaults */
 567:.\Generated_Source\PSoC5/cyfitter_cfg.c **** 	AnalogSetDefault();
 775              		.loc 1 567 0
 776 00d6 FFF7FEFF 		bl	AnalogSetDefault
 777              	.LVL57:
 568:.\Generated_Source\PSoC5/cyfitter_cfg.c **** 
 569:.\Generated_Source\PSoC5/cyfitter_cfg.c **** 	/* Configure alternate active mode */
 570:.\Generated_Source\PSoC5/cyfitter_cfg.c **** 	CYCONFIGCPY((void CYFAR *)CYDEV_PM_STBY_BASE, (const void CYFAR *)CYDEV_PM_ACT_BASE, 14u);
 778              		.loc 1 570 0
 779 00da 1648     		ldr	r0, .L57+76
 780 00dc 2146     		mov	r1, r4
 781 00de 0E22     		movs	r2, #14
 782 00e0 FFF7FEFF 		bl	CYCONFIGCPY
 783              	.LVL58:
 784 00e4 70BD     		pop	{r4, r5, r6, pc}
 785              	.L58:
 786 00e6 00BF     		.align	2
 787              	.L57:
 788 00e8 E8460040 		.word	1073759976
 789 00ec 00000000 		.word	.LANCHOR0
 790 00f0 7C000048 		.word	1207959676
 791 00f4 83580040 		.word	1073764483
 792 00f8 03500140 		.word	1073827843
 793 00fc A0430040 		.word	1073759136
 794 0100 C2510040 		.word	1073762754
 795 0104 84040048 		.word	1207960708
 796 0108 F0510040 		.word	1073762800
 797 010c 8C040048 		.word	1207960716
 798 0110 22510040 		.word	1073762594
 799 0114 98040048 		.word	1207960728
 800 0118 42510040 		.word	1073762626
 801 011c A0040048 		.word	1207960736
 802 0120 60510040 		.word	1073762656
 803 0124 A8040048 		.word	1207960744
 804 0128 22430040 		.word	1073759010
 805 012c 00480040 		.word	1073760256
 806 0130 04000840 		.word	1074266116
ARM GAS  C:\Users\student\AppData\Local\Temp\cc4gFqWM.s 			page 26


 807 0134 B0430040 		.word	1073759152
 808              		.cfi_endproc
 809              	.LFE12:
 810              		.size	cyfitter_cfg, .-cyfitter_cfg
 811              		.global	ADC_DelSig_1_AMux__maskTable
 812              		.global	ADC_DelSig_1_AMux__addrTable
 813              		.global	AMux_1__maskTable
 814              		.global	AMux_1__addrTable
 815              		.section	.rodata
 816              		.align	2
 817              		.set	.LANCHOR0,. + 0
 818              		.type	AMux_1__addrTable, %object
 819              		.size	AMux_1__addrTable, 32
 820              	AMux_1__addrTable:
 821 0000 6D510040 		.word	1073762669
 822 0004 005B0040 		.word	1073765120
 823 0008 4D510040 		.word	1073762637
 824 000c 005B0040 		.word	1073765120
 825 0010 4D510040 		.word	1073762637
 826 0014 005B0040 		.word	1073765120
 827 0018 4D510040 		.word	1073762637
 828 001c 005B0040 		.word	1073765120
 829              		.type	AMux_1__maskTable, %object
 830              		.size	AMux_1__maskTable, 8
 831              	AMux_1__maskTable:
 832 0020 20       		.byte	32
 833 0021 02       		.byte	2
 834 0022 01       		.byte	1
 835 0023 10       		.byte	16
 836 0024 02       		.byte	2
 837 0025 20       		.byte	32
 838 0026 04       		.byte	4
 839 0027 40       		.byte	64
 840              		.type	ADC_DelSig_1_AMux__addrTable, %object
 841              		.size	ADC_DelSig_1_AMux__addrTable, 8
 842              	ADC_DelSig_1_AMux__addrTable:
 843 0028 035B0040 		.word	1073765123
 844 002c 24430040 		.word	1073759012
 845              		.type	ADC_DelSig_1_AMux__maskTable, %object
 846              		.size	ADC_DelSig_1_AMux__maskTable, 2
 847              	ADC_DelSig_1_AMux__maskTable:
 848 0030 40       		.byte	64
 849 0031 00       		.byte	0
 850 0032 0000     		.space	2
 851              		.type	cfg_memset_list.4913, %object
 852              		.size	cfg_memset_list.4913, 60
 853              	cfg_memset_list.4913:
 854 0034 004F0040 		.word	1073762048
 855 0038 0C00     		.short	12
 856 003a 00510040 		.4byte	1073762560
 857 003e 2000     		.short	32
 858 0040 30510040 		.word	1073762608
 859 0044 1000     		.short	16
 860 0046 50510040 		.4byte	1073762640
 861 004a 1000     		.short	16
 862 004c 00000140 		.word	1073807360
 863 0050 000E     		.short	3584
ARM GAS  C:\Users\student\AppData\Local\Temp\cc4gFqWM.s 			page 27


 864 0052 800E0140 		.4byte	1073811072
 865 0056 8001     		.short	384
 866 0058 00140140 		.word	1073812480
 867 005c 0008     		.short	2048
 868 005e 00400140 		.4byte	1073823744
 869 0062 000A     		.short	2560
 870 0064 004C0140 		.word	1073826816
 871 0068 0002     		.short	512
 872 006a 00500140 		.4byte	1073827840
 873 006e 2000     		.short	32
 874              		.type	cfg_memcpy_list.4914, %object
 875              		.size	cfg_memcpy_list.4914, 10
 876              	cfg_memcpy_list.4914:
 877 0070 000E0140 		.word	1073810944
 878 0074 04040048 		.word	1207960580
 879 0078 8000     		.short	128
 880 007a 0000     		.text
 881              	.Letext0:
 882              		.file 2 "c:\\program files (x86)\\cypress\\psoc creator\\3.3\\psoc creator\\import\\gnu\\arm\\4.9.
 883              		.file 3 ".\\Generated_Source\\PSoC5\\cytypes.h"
 884              		.file 4 ".\\Generated_Source\\PSoC5\\CyLib.h"