ARM GAS  C:\Users\student\AppData\Local\Temp\ccHwZbLt.s 			page 1


   1              		.syntax unified
   2              		.cpu cortex-m3
   3              		.fpu softvfp
   4              		.eabi_attribute 20, 1
   5              		.eabi_attribute 21, 1
   6              		.eabi_attribute 23, 3
   7              		.eabi_attribute 24, 1
   8              		.eabi_attribute 25, 1
   9              		.eabi_attribute 26, 1
  10              		.eabi_attribute 30, 1
  11              		.eabi_attribute 34, 1
  12              		.eabi_attribute 18, 4
  13              		.thumb
  14              		.file	"main.c"
  15              		.text
  16              	.Ltext0:
  17              		.cfi_sections	.debug_frame
  18              		.global	__aeabi_i2d
  19              		.global	__aeabi_dmul
  20              		.global	__aeabi_d2uiz
  21              		.global	__aeabi_dsub
  22              		.global	__aeabi_dadd
  23              		.section	.text.readPot,"ax",%progbits
  24              		.align	2
  25              		.global	readPot
  26              		.thumb
  27              		.thumb_func
  28              		.type	readPot, %function
  29              	readPot:
  30              	.LFB66:
  31              		.file 1 ".\\main.c"
   1:.\main.c      **** /* ========================================
   2:.\main.c      ****  *
   3:.\main.c      ****  * Copyright YOUR COMPANY, THE YEAR
   4:.\main.c      ****  * All Rights Reserved
   5:.\main.c      ****  * UNPUBLISHED, LICENSED SOFTWARE.
   6:.\main.c      ****  *
   7:.\main.c      ****  * CONFIDENTIAL AND PROPRIETARY INFORMATION
   8:.\main.c      ****  * WHICH IS THE PROPERTY OF your company.
   9:.\main.c      ****  *
  10:.\main.c      ****  * ========================================
  11:.\main.c      **** */
  12:.\main.c      **** #include <cyapicallbacks.h>
  13:.\main.c      **** #include <project.h>
  14:.\main.c      **** 
  15:.\main.c      **** // Functions
  16:.\main.c      **** int readPot();
  17:.\main.c      **** void sendPWM(int);
  18:.\main.c      **** void printPWM();
  19:.\main.c      **** int readPhotoresistor();
  20:.\main.c      **** int getAvgPhotoresistors();
  21:.\main.c      **** void printPhotoresistor(int, int);
  22:.\main.c      **** void pushPhotoBuffer(int);
  23:.\main.c      **** int averagePhotoBuffer();
  24:.\main.c      **** int getPhotoPWMDiff(int, int);
  25:.\main.c      **** int calcNewPWM(int, int);
  26:.\main.c      **** int getPhotoDiff(int, int);
ARM GAS  C:\Users\student\AppData\Local\Temp\ccHwZbLt.s 			page 2


  27:.\main.c      **** //int getCurrentPWM();
  28:.\main.c      **** //int autoMode(int, int); 
  29:.\main.c      **** 
  30:.\main.c      **** 
  31:.\main.c      **** // Global variables 
  32:.\main.c      **** 
  33:.\main.c      **** // states
  34:.\main.c      **** int ledState;
  35:.\main.c      **** int userMode;       // 0 = manual mode, 1 = automated mode, 2 = init timer mode, 3 = timer mode
  36:.\main.c      **** 
  37:.\main.c      **** // pwm
  38:.\main.c      **** uint8 currentPWM; 
  39:.\main.c      **** int receivedPWM = 0;
  40:.\main.c      **** int initPWM;
  41:.\main.c      **** 
  42:.\main.c      **** // photoresistors
  43:.\main.c      **** int currentPhoto;
  44:.\main.c      **** int initPhoto;
  45:.\main.c      **** int timeAvgPhoto;
  46:.\main.c      **** int bufferLength = 10;
  47:.\main.c      **** int photoBuffer[10];
  48:.\main.c      **** int photoPWMDiff;
  49:.\main.c      **** 
  50:.\main.c      **** // timing
  51:.\main.c      **** int timeMode = 0;
  52:.\main.c      **** int timePrefsLength = 3;
  53:.\main.c      **** int timePrefs[3] = {255, 250, 245};
  54:.\main.c      **** int timeInterval = 20;
  55:.\main.c      **** int timeCounter = 0;
  56:.\main.c      **** 
  57:.\main.c      **** // led
  58:.\main.c      **** int ledPWM = 0;
  59:.\main.c      **** int ledPWMState = 0;    // 0 = stopped, 1 = started
  60:.\main.c      **** 
  61:.\main.c      **** // constants
  62:.\main.c      **** uint8 GET_CURRENT_PWM = 1;
  63:.\main.c      **** int const MANUAL_MODE = 0;
  64:.\main.c      **** int const AUTO_MODE = 1;
  65:.\main.c      **** int const INIT_TIMED_MODE = 2;
  66:.\main.c      **** int const TIMED_MODE = 3;
  67:.\main.c      **** 
  68:.\main.c      **** int const DAWN = 0;
  69:.\main.c      **** int const MORNING = 1;
  70:.\main.c      **** int const AFTERNOON = 2;
  71:.\main.c      **** int const EVENING = 3;
  72:.\main.c      **** 
  73:.\main.c      **** int const LIGHTING_ON = 1;
  74:.\main.c      **** int const LIGHTING_OFF = 0;
  75:.\main.c      **** 
  76:.\main.c      **** /* Interrupts */ 
  77:.\main.c      **** 
  78:.\main.c      **** // Switch interrupt
  79:.\main.c      **** /*
  80:.\main.c      **** CY_ISR(SW_INT)
  81:.\main.c      **** {
  82:.\main.c      ****     userMode = !userMode;
  83:.\main.c      ****     LED_Mode_Write(userMode);
ARM GAS  C:\Users\student\AppData\Local\Temp\ccHwZbLt.s 			page 3


  84:.\main.c      ****     
  85:.\main.c      ****     if (userMode == AUTO_MODE)
  86:.\main.c      ****     {
  87:.\main.c      ****         AMux_1_Select(0);
  88:.\main.c      ****         initPWM = readPot();
  89:.\main.c      ****         LCD_Char_1_Position(1, 5);
  90:.\main.c      ****         LCD_Char_1_PrintNumber(initPWM);
  91:.\main.c      **** 
  92:.\main.c      ****         AMux_1_Select(1);
  93:.\main.c      ****         CyDelay(100);
  94:.\main.c      ****         initPhoto = readPhotoresistor();
  95:.\main.c      ****         //initPhoto = 3700;
  96:.\main.c      ****         LCD_Char_1_Position(0, 12);
  97:.\main.c      ****   	    LCD_Char_1_PrintNumber(initPhoto);
  98:.\main.c      ****     }
  99:.\main.c      ****     else if (userMode == MANUAL_MODE)
 100:.\main.c      ****     {
 101:.\main.c      ****         AMux_1_Select(0);        
 102:.\main.c      ****     }
 103:.\main.c      ****     //LCD_Char_1_Position(1, 11);
 104:.\main.c      ****     //LCD_Char_1_PrintNumber(userMode);
 105:.\main.c      **** }*/
 106:.\main.c      **** 
 107:.\main.c      **** // Tx interrupt
 108:.\main.c      **** /*CY_ISR(TX_INT)
 109:.\main.c      **** {
 110:.\main.c      ****     if (state == 0) {
 111:.\main.c      ****         Pin_2_Write(1);
 112:.\main.c      ****         state = 1;
 113:.\main.c      ****     }
 114:.\main.c      ****     else if (state == 1) {
 115:.\main.c      ****         Pin_2_Write(0);
 116:.\main.c      ****         state = 0;
 117:.\main.c      ****     }
 118:.\main.c      **** }*/
 119:.\main.c      **** 
 120:.\main.c      **** // Timer interrupt
 121:.\main.c      **** CY_ISR(TIMER_INT)
 122:.\main.c      **** {
 123:.\main.c      ****     Timer_1_STATUS;         // clear interrupt flag 
 124:.\main.c      ****     LED_Write(!LED_Read());
 125:.\main.c      ****     timeCounter += 1;
 126:.\main.c      ****     if ((userMode == TIMED_MODE) && (timeCounter == timeInterval))
 127:.\main.c      ****     {
 128:.\main.c      ****         int done = 0;
 129:.\main.c      ****         timeCounter = 0;    // reset counter 
 130:.\main.c      ****         
 131:.\main.c      ****         // set state and corresponding PWM 
 132:.\main.c      ****         if (timeMode == DAWN)
 133:.\main.c      ****         {
 134:.\main.c      ****             timeMode = MORNING;   
 135:.\main.c      ****             currentPWM = timePrefs[0];
 136:.\main.c      ****             done = 1;
 137:.\main.c      ****         }
 138:.\main.c      ****         else if (!done && timeMode == MORNING)
 139:.\main.c      ****         {
 140:.\main.c      ****             LED_Mode_Write(1);
ARM GAS  C:\Users\student\AppData\Local\Temp\ccHwZbLt.s 			page 4


 141:.\main.c      ****             timeMode = AFTERNOON;   
 142:.\main.c      ****             currentPWM = timePrefs[1];
 143:.\main.c      ****             done = 1;
 144:.\main.c      ****         }
 145:.\main.c      ****         else if (!done && timeMode == AFTERNOON)
 146:.\main.c      ****         {
 147:.\main.c      ****             LED_Mode_Write(0);
 148:.\main.c      ****             timeMode = EVENING;   
 149:.\main.c      ****             currentPWM = timePrefs[2];
 150:.\main.c      ****             done = 1;
 151:.\main.c      ****         }
 152:.\main.c      ****         else if (!done && timeMode == EVENING)
 153:.\main.c      ****         {
 154:.\main.c      ****             timeMode = DAWN; 
 155:.\main.c      ****             userMode = MANUAL_MODE;
 156:.\main.c      ****             Timer_1_Stop();
 157:.\main.c      ****             done = 1;
 158:.\main.c      ****         }
 159:.\main.c      ****         
 160:.\main.c      ****         // send PWM 
 161:.\main.c      ****         sendPWM(currentPWM);
 162:.\main.c      ****         printPWM();
 163:.\main.c      ****         
 164:.\main.c      ****         // reset reference PWM and photoresistor reading
 165:.\main.c      ****         initPWM = currentPWM;
 166:.\main.c      ****     }
 167:.\main.c      **** }
 168:.\main.c      **** 
 169:.\main.c      **** // Rx interrupt 
 170:.\main.c      **** CY_ISR(RX_INT)
 171:.\main.c      **** {
 172:.\main.c      ****     //currentPWM = UART_1_ReadRxData();
 173:.\main.c      ****     //receivedPWM = 1;
 174:.\main.c      ****     uint8 amuletData = UART_1_ReadRxData();
 175:.\main.c      **** 
 176:.\main.c      ****     // Set manual mode
 177:.\main.c      ****     if ((amuletData == 0x31) && (userMode != MANUAL_MODE))
 178:.\main.c      ****     {
 179:.\main.c      ****         if (userMode != TIMED_MODE)
 180:.\main.c      ****         {
 181:.\main.c      ****             userMode = MANUAL_MODE;
 182:.\main.c      ****             LED_Mode_Write(userMode);            
 183:.\main.c      ****         }
 184:.\main.c      ****     }
 185:.\main.c      ****     
 186:.\main.c      ****     // Set automated mode
 187:.\main.c      ****     else if ((amuletData == 0x32) && (userMode != AUTO_MODE))
 188:.\main.c      ****     {
 189:.\main.c      ****         userMode = AUTO_MODE;   
 190:.\main.c      ****         LED_Mode_Write(userMode);
 191:.\main.c      ****         
 192:.\main.c      ****         // Initialize PWM
 193:.\main.c      ****         initPWM = currentPWM;
 194:.\main.c      **** 
 195:.\main.c      ****         // Get current photoresistor reading
 196:.\main.c      ****         initPhoto = timeAvgPhoto;
 197:.\main.c      ****         
ARM GAS  C:\Users\student\AppData\Local\Temp\ccHwZbLt.s 			page 5


 198:.\main.c      ****         // Get difference
 199:.\main.c      ****         /*photoPWMDiff = getPhotoPWMDiff(initPhoto, initPWM);
 200:.\main.c      ****         printPWM();*/
 201:.\main.c      ****         
 202:.\main.c      ****         // Initialize time buffer with current photoresistor reading 
 203:.\main.c      ****         /*int i;
 204:.\main.c      ****         for (i=0; i<bufferLength; i+=1)
 205:.\main.c      ****         {
 206:.\main.c      ****             pushPhotoBuffer(currentPhoto);
 207:.\main.c      ****         }
 208:.\main.c      ****         timeAvgPhoto = averagePhotoBuffer();
 209:.\main.c      ****         printPhotoresistor(currentPhoto, timeAvgPhoto);*/
 210:.\main.c      ****     }
 211:.\main.c      ****     
 212:.\main.c      ****     // Adjust current brightness in manual mode or in simulation 
 213:.\main.c      ****     else if ((userMode == MANUAL_MODE || userMode == TIMED_MODE) && 
 214:.\main.c      ****             (amuletData <= 255) && (amuletData >= 245)) // can manually adjust in simulation
 215:.\main.c      ****     {
 216:.\main.c      ****         currentPWM = amuletData;
 217:.\main.c      ****         printPWM();
 218:.\main.c      ****         sendPWM(currentPWM);
 219:.\main.c      ****         if (userMode == TIMED_MODE)
 220:.\main.c      ****         {
 221:.\main.c      ****             initPWM = currentPWM;   
 222:.\main.c      ****         }
 223:.\main.c      ****     }
 224:.\main.c      ****     
 225:.\main.c      ****     // Set timed initialization mode 
 226:.\main.c      ****     else if ((amuletData == 0x41) && (userMode != INIT_TIMED_MODE) && (userMode != TIMED_MODE)) // 
 227:.\main.c      ****     {
 228:.\main.c      ****         userMode = INIT_TIMED_MODE;
 229:.\main.c      ****     }
 230:.\main.c      ****     
 231:.\main.c      ****     // Adjust brightness in morning adjust mode 
 232:.\main.c      ****     else if ((userMode == INIT_TIMED_MODE) && (amuletData <= 0xef) && (amuletData >=0xe5))
 233:.\main.c      ****     {
 234:.\main.c      ****         int brightnessVal = (amuletData | 0xf0);
 235:.\main.c      ****         timePrefs[0] = brightnessVal;
 236:.\main.c      ****         currentPWM = brightnessVal;
 237:.\main.c      ****         printPWM();
 238:.\main.c      ****         sendPWM(currentPWM);
 239:.\main.c      ****     }
 240:.\main.c      **** 
 241:.\main.c      ****     // Adjust brightness in afternoon adjust mode 
 242:.\main.c      ****     else if ((userMode == INIT_TIMED_MODE) && (amuletData <= 0xdf) && (amuletData >=0xd5))
 243:.\main.c      ****     {
 244:.\main.c      ****         int brightnessVal = (amuletData | 0xf0);
 245:.\main.c      ****         timePrefs[1] = brightnessVal;
 246:.\main.c      ****         currentPWM = brightnessVal;
 247:.\main.c      ****         printPWM();
 248:.\main.c      ****         sendPWM(currentPWM);
 249:.\main.c      ****     }
 250:.\main.c      **** 
 251:.\main.c      ****     // Adjust brightness in evening adjust mode 
 252:.\main.c      ****     else if ((userMode == INIT_TIMED_MODE) && (amuletData <= 0xcf) && (amuletData >=0xc5))
 253:.\main.c      ****     {
 254:.\main.c      ****         int brightnessVal = (amuletData | 0xf0);
ARM GAS  C:\Users\student\AppData\Local\Temp\ccHwZbLt.s 			page 6


 255:.\main.c      ****         timePrefs[2] = brightnessVal;
 256:.\main.c      ****         currentPWM = brightnessVal;
 257:.\main.c      ****         printPWM();
 258:.\main.c      ****         sendPWM(currentPWM);
 259:.\main.c      ****     }
 260:.\main.c      ****     
 261:.\main.c      ****     // Start simulation in timed mode
 262:.\main.c      ****     else if ((amuletData == 0x42) && (userMode != TIMED_MODE))
 263:.\main.c      ****     {
 264:.\main.c      ****         // set mode
 265:.\main.c      ****         userMode = TIMED_MODE;
 266:.\main.c      ****         timeCounter = 0;
 267:.\main.c      ****         timeMode = MORNING;
 268:.\main.c      ****         
 269:.\main.c      ****         // set initial PWM 
 270:.\main.c      ****         currentPWM = timePrefs[0];
 271:.\main.c      ****         printPWM();
 272:.\main.c      ****         
 273:.\main.c      ****         // set reference PWM and photoresistor reading
 274:.\main.c      ****         initPWM = currentPWM;
 275:.\main.c      ****         initPhoto = timeAvgPhoto;
 276:.\main.c      ****         
 277:.\main.c      ****         // start timer
 278:.\main.c      ****         Timer_1_Start();
 279:.\main.c      ****         LED_Mode_Write(0);
 280:.\main.c      ****     }
 281:.\main.c      **** }
 282:.\main.c      **** 
 283:.\main.c      **** void main()
 284:.\main.c      **** {
 285:.\main.c      ****     // Initialize LCD
 286:.\main.c      **** 	LCD_Char_1_Start();		
 287:.\main.c      **** 	LCD_Char_1_ClearDisplay();
 288:.\main.c      ****     LCD_Char_1_PrintString("Photo: ");
 289:.\main.c      ****     LCD_Char_1_Position(1, 0);
 290:.\main.c      ****     LCD_Char_1_PrintString("PWM: ");
 291:.\main.c      ****     /*LCD_Char_1_Position(1, 0);
 292:.\main.c      ****     LCD_Char_1_PrintString("User Mode: ");*/
 293:.\main.c      **** 	
 294:.\main.c      ****     // Initialize analog mux and ADC
 295:.\main.c      ****     AMux_1_Init();
 296:.\main.c      ****     AMux_1_Start();
 297:.\main.c      ****     //AMux_1_Select(0);
 298:.\main.c      **** 	ADC_DelSig_1_Start();				// start the ADC_DelSig_1
 299:.\main.c      **** 	ADC_DelSig_1_StartConvert();		// start the ADC_DelSig_1 conversion
 300:.\main.c      ****     
 301:.\main.c      ****     // Initialize sleep timer
 302:.\main.c      **** 
 303:.\main.c      ****     // Interrupts
 304:.\main.c      ****     CyGlobalIntEnable;
 305:.\main.c      ****     rx_int_StartEx(RX_INT); 
 306:.\main.c      ****     timer_int_StartEx(TIMER_INT);
 307:.\main.c      ****     //tx_int_StartEx(TX_INT);
 308:.\main.c      ****     //Sw_Mode_Int_StartEx(SW_INT);
 309:.\main.c      **** 
 310:.\main.c      ****     // Initialize UART
 311:.\main.c      ****     UART_1_Start();                       
ARM GAS  C:\Users\student\AppData\Local\Temp\ccHwZbLt.s 			page 7


 312:.\main.c      ****     UART_1_ClearRxBuffer();
 313:.\main.c      ****     UART_1_ClearTxBuffer();
 314:.\main.c      ****     LED_Write(0);
 315:.\main.c      ****     LED_Mode_Write(0);
 316:.\main.c      ****     
 317:.\main.c      ****     // PWM module
 318:.\main.c      ****     PWM_1_WritePeriod(255);
 319:.\main.c      ****     
 320:.\main.c      ****     // Initialize variables 
 321:.\main.c      ****     double threshold = 0;
 322:.\main.c      ****     userMode = 0;
 323:.\main.c      ****     ledState = 0;
 324:.\main.c      ****     currentPWM = 250;
 325:.\main.c      ****     currentPhoto = 3700;
 326:.\main.c      ****     
 327:.\main.c      ****     // Send initial PWM 
 328:.\main.c      ****     sendPWM(currentPWM);
 329:.\main.c      ****     printPWM();
 330:.\main.c      **** 
 331:.\main.c      ****     for(;;)
 332:.\main.c      ****     {
 333:.\main.c      ****         
 334:.\main.c      ****         //LCD_Char_1_Position(0, 11);
 335:.\main.c      ****         //LCD_Char_1_PrintNumber(userMode);
 336:.\main.c      ****         //printPhotoresistor();
 337:.\main.c      ****         
 338:.\main.c      ****         // Manual Mode
 339:.\main.c      **** 		/*if (userMode == MANUAL_MODE)
 340:.\main.c      ****         {
 341:.\main.c      ****             currentPWM = readPot();
 342:.\main.c      ****             printPWM(currentPWM);
 343:.\main.c      ****             sendPWM(currentPWM);
 344:.\main.c      ****         }*/
 345:.\main.c      ****         
 346:.\main.c      ****         // Current average photoresistor values
 347:.\main.c      ****         currentPhoto = getAvgPhotoresistors(); 
 348:.\main.c      ****         
 349:.\main.c      ****         // Time averaged photoresistor value 
 350:.\main.c      ****         pushPhotoBuffer(currentPhoto);
 351:.\main.c      ****         timeAvgPhoto = averagePhotoBuffer();
 352:.\main.c      ****         printPhotoresistor(currentPhoto, timeAvgPhoto);
 353:.\main.c      ****         
 354:.\main.c      ****         // Automated Mode 
 355:.\main.c      ****         if (userMode == AUTO_MODE || userMode == TIMED_MODE)
 356:.\main.c      ****         {            
 357:.\main.c      ****             // Adjust PWM if reading exceeds threshold
 358:.\main.c      ****             int currentPhotoDiff = getPhotoDiff(timeAvgPhoto, initPhoto);
 359:.\main.c      ****             if (abs(currentPhotoDiff) >= threshold)
 360:.\main.c      ****             {
 361:.\main.c      ****                 LED_Write(!LED_Read());
 362:.\main.c      ****                 currentPWM = calcNewPWM(initPWM, currentPhotoDiff);
 363:.\main.c      ****                 
 364:.\main.c      ****                 // set LED lighting if necessary 
 365:.\main.c      ****                 if (ledPWMState == LIGHTING_ON)
 366:.\main.c      ****                 {
 367:.\main.c      ****                     PWM_1_WriteCompare(ledPWM);
 368:.\main.c      ****                     PWM_1_Start();
ARM GAS  C:\Users\student\AppData\Local\Temp\ccHwZbLt.s 			page 8


 369:.\main.c      ****                 }
 370:.\main.c      ****                 
 371:.\main.c      ****                 else if (ledPWMState == LIGHTING_OFF)
 372:.\main.c      ****                 {
 373:.\main.c      ****                     PWM_1_Stop();   
 374:.\main.c      ****                 }
 375:.\main.c      ****             }
 376:.\main.c      **** 
 377:.\main.c      ****             /*int currentPhotoPWMDiff = getPhotoPWMDiff(timeAvgPhoto, currentPWM);
 378:.\main.c      ****             if (abs(currentPhotoPWMDiff - photoPWMDiff) >= threshold)
 379:.\main.c      ****             {
 380:.\main.c      ****                 LED_Write(!LED_Read());
 381:.\main.c      ****                 currentPWM = calcNewPWM(timeAvgPhoto, photoPWMDiff);
 382:.\main.c      ****             }*/
 383:.\main.c      ****             
 384:.\main.c      ****             
 385:.\main.c      ****             /*if (timeAvgPhoto - initPhoto >= threshold)
 386:.\main.c      ****             {
 387:.\main.c      ****                 int photoDiff = timeAvgPhoto - initPhoto;
 388:.\main.c      ****                 photoDiff /= 50;
 389:.\main.c      ****                 if (currentPWM - photoDiff < 245) currentPWM = 245;
 390:.\main.c      ****                 else currentPWM -= photoDiff;
 391:.\main.c      ****                 initPhoto = timeAvgPhoto;
 392:.\main.c      ****                 initPWM = currentPWM;
 393:.\main.c      ****             }
 394:.\main.c      ****             else if (initPhoto - timeAvgPhoto >= threshold)
 395:.\main.c      ****             {
 396:.\main.c      ****                 int photoDiff = initPhoto - timeAvgPhoto;
 397:.\main.c      ****                 photoDiff /= 50;
 398:.\main.c      ****                 if (currentPWM + photoDiff > 255) currentPWM = 255;
 399:.\main.c      ****                 else currentPWM += photoDiff;
 400:.\main.c      ****                 initPhoto = timeAvgPhoto;
 401:.\main.c      ****                 initPWM = currentPWM;
 402:.\main.c      ****             }*/
 403:.\main.c      ****             
 404:.\main.c      ****             // Print and send PWM 
 405:.\main.c      ****             printPWM();
 406:.\main.c      ****             sendPWM(currentPWM);
 407:.\main.c      ****         }
 408:.\main.c      ****     }
 409:.\main.c      **** 
 410:.\main.c      **** }
 411:.\main.c      **** 
 412:.\main.c      **** /*****************/
 413:.\main.c      **** /* Potentiometer */
 414:.\main.c      **** /*****************/
 415:.\main.c      **** 
 416:.\main.c      **** int readPot() 
 417:.\main.c      **** {
  32              		.loc 1 417 0
  33              		.cfi_startproc
  34              		@ args = 0, pretend = 0, frame = 0
  35              		@ frame_needed = 0, uses_anonymous_args = 0
  36 0000 10B5     		push	{r4, lr}
  37              		.cfi_def_cfa_offset 8
  38              		.cfi_offset 4, -8
  39              		.cfi_offset 14, -4
ARM GAS  C:\Users\student\AppData\Local\Temp\ccHwZbLt.s 			page 9


  40              	.LVL0:
 418:.\main.c      ****     uint16 adcResult;
 419:.\main.c      ****     uint8 transmitData;
 420:.\main.c      ****     unsigned char j = 100;				// milliseconds delay
 421:.\main.c      ****     
 422:.\main.c      ****     if( ADC_DelSig_1_IsEndConversion(ADC_DelSig_1_WAIT_FOR_RESULT) )
  41              		.loc 1 422 0
  42 0002 0020     		movs	r0, #0
  43 0004 FFF7FEFF 		bl	ADC_DelSig_1_IsEndConversion
  44              	.LVL1:
  45 0008 50B3     		cbz	r0, .L2
 423:.\main.c      **** 		{
 424:.\main.c      **** 			adcResult = ADC_DelSig_1_GetResult16();		// read the adc and assign the value adcResult 
  46              		.loc 1 424 0
  47 000a FFF7FEFF 		bl	ADC_DelSig_1_GetResult16
  48              	.LVL2:
  49 000e 83B2     		uxth	r3, r0
  50              	.LVL3:
 425:.\main.c      ****        		if (adcResult & 0x8000)
  51              		.loc 1 425 0
  52 0010 0028     		cmp	r0, #0
  53 0012 03DB     		blt	.L4
 426:.\main.c      ****        		{
 427:.\main.c      ****         		adcResult = 0;                          // ignore negative ADC results
 428:.\main.c      ****        		}
 429:.\main.c      ****        		else if (adcResult >= 1024)
  54              		.loc 1 429 0
  55 0014 B3F5806F 		cmp	r3, #1024
  56 0018 02D2     		bcs	.L5
  57 001a 03E0     		b	.L3
  58              	.L4:
 427:.\main.c      ****        		}
  59              		.loc 1 427 0
  60 001c 0023     		movs	r3, #0
  61              	.LVL4:
  62 001e 01E0     		b	.L3
  63              	.LVL5:
  64              	.L5:
 430:.\main.c      ****        		{
 431:.\main.c      ****         		adcResult = 1024;                       // ignore high ADC results
  65              		.loc 1 431 0
  66 0020 4FF48063 		mov	r3, #1024
  67              	.LVL6:
  68              	.L3:
 432:.\main.c      ****        		}
 433:.\main.c      ****             
 434:.\main.c      ****             // Convert potentiometer reading to PWM 
 435:.\main.c      ****             transmitData = adcResult*10./1024.;
  69              		.loc 1 435 0
  70 0024 1846     		mov	r0, r3
  71 0026 FFF7FEFF 		bl	__aeabi_i2d
  72              	.LVL7:
  73 002a 0022     		movs	r2, #0
  74 002c 104B     		ldr	r3, .L7+8
  75 002e FFF7FEFF 		bl	__aeabi_dmul
  76              	.LVL8:
  77 0032 0022     		movs	r2, #0
ARM GAS  C:\Users\student\AppData\Local\Temp\ccHwZbLt.s 			page 10


  78 0034 0F4B     		ldr	r3, .L7+12
  79 0036 FFF7FEFF 		bl	__aeabi_dmul
  80              	.LVL9:
  81 003a FFF7FEFF 		bl	__aeabi_d2uiz
  82              	.LVL10:
 436:.\main.c      ****             transmitData = 245. + (10. - transmitData);
  83              		.loc 1 436 0
  84 003e C0B2     		uxtb	r0, r0
  85 0040 FFF7FEFF 		bl	__aeabi_i2d
  86              	.LVL11:
  87 0044 0246     		mov	r2, r0
  88 0046 0B46     		mov	r3, r1
  89 0048 0020     		movs	r0, #0
  90 004a 0949     		ldr	r1, .L7+8
  91 004c FFF7FEFF 		bl	__aeabi_dsub
  92              	.LVL12:
  93 0050 05A3     		adr	r3, .L7
  94 0052 D3E90023 		ldrd	r2, [r3]
  95 0056 FFF7FEFF 		bl	__aeabi_dadd
  96              	.LVL13:
  97 005a FFF7FEFF 		bl	__aeabi_d2uiz
  98              	.LVL14:
  99 005e C4B2     		uxtb	r4, r0
 100              	.LVL15:
 101              	.L2:
 437:.\main.c      **** 		}   
 438:.\main.c      ****     return transmitData;
 439:.\main.c      **** }
 102              		.loc 1 439 0
 103 0060 2046     		mov	r0, r4
 104 0062 10BD     		pop	{r4, pc}
 105              	.LVL16:
 106              	.L8:
 107 0064 AFF30080 		.align	3
 108              	.L7:
 109 0068 00000000 		.word	0
 110 006c 00A06E40 		.word	1080991744
 111 0070 00002440 		.word	1076101120
 112 0074 0000503F 		.word	1062207488
 113              		.cfi_endproc
 114              	.LFE66:
 115              		.size	readPot, .-readPot
 116              		.section	.text.sendPWM,"ax",%progbits
 117              		.align	2
 118              		.global	sendPWM
 119              		.thumb
 120              		.thumb_func
 121              		.type	sendPWM, %function
 122              	sendPWM:
 123              	.LFB67:
 440:.\main.c      **** 
 441:.\main.c      **** /*******/
 442:.\main.c      **** /* PWM */
 443:.\main.c      **** /*******/
 444:.\main.c      **** 
 445:.\main.c      **** void sendPWM(int currentPWM)
 446:.\main.c      **** {
ARM GAS  C:\Users\student\AppData\Local\Temp\ccHwZbLt.s 			page 11


 124              		.loc 1 446 0
 125              		.cfi_startproc
 126              		@ args = 0, pretend = 0, frame = 0
 127              		@ frame_needed = 0, uses_anonymous_args = 0
 128              	.LVL17:
 129 0000 08B5     		push	{r3, lr}
 130              		.cfi_def_cfa_offset 8
 131              		.cfi_offset 3, -8
 132              		.cfi_offset 14, -4
 447:.\main.c      ****     // Transmit data 
 448:.\main.c      ****     UART_1_WriteTxData(currentPWM);
 133              		.loc 1 448 0
 134 0002 C0B2     		uxtb	r0, r0
 135              	.LVL18:
 136 0004 FFF7FEFF 		bl	UART_1_WriteTxData
 137              	.LVL19:
 449:.\main.c      ****     
 450:.\main.c      ****     // Toggle LED for debugging 
 451:.\main.c      ****     /*ledState = !ledState;
 452:.\main.c      ****     LED_Write(ledState);*/
 453:.\main.c      ****     unsigned char j = 100;	
 454:.\main.c      **** 	CyDelay(j);		
 138              		.loc 1 454 0
 139 0008 6420     		movs	r0, #100
 140 000a FFF7FEFF 		bl	CyDelay
 141              	.LVL20:
 142 000e 08BD     		pop	{r3, pc}
 143              		.cfi_endproc
 144              	.LFE67:
 145              		.size	sendPWM, .-sendPWM
 146              		.section	.text.printPWM,"ax",%progbits
 147              		.align	2
 148              		.global	printPWM
 149              		.thumb
 150              		.thumb_func
 151              		.type	printPWM, %function
 152              	printPWM:
 153              	.LFB68:
 455:.\main.c      **** }
 456:.\main.c      **** 
 457:.\main.c      **** void printPWM()
 458:.\main.c      **** {
 154              		.loc 1 458 0
 155              		.cfi_startproc
 156              		@ args = 0, pretend = 0, frame = 0
 157              		@ frame_needed = 0, uses_anonymous_args = 0
 158 0000 08B5     		push	{r3, lr}
 159              		.cfi_def_cfa_offset 8
 160              		.cfi_offset 3, -8
 161              		.cfi_offset 14, -4
 459:.\main.c      **** 	/*LCD_Char_1_Position(0, 6);
 460:.\main.c      **** 	LCD_Char_1_PrintString("     ");			// clean up the previous display
 461:.\main.c      **** 	LCD_Char_1_Position(0, 6);*/
 462:.\main.c      ****     
 463:.\main.c      ****     // Current PWM
 464:.\main.c      ****     LCD_Char_1_Position(1, 5);
 162              		.loc 1 464 0
ARM GAS  C:\Users\student\AppData\Local\Temp\ccHwZbLt.s 			page 12


 163 0002 0120     		movs	r0, #1
 164 0004 0521     		movs	r1, #5
 165 0006 FFF7FEFF 		bl	LCD_Char_1_Position
 166              	.LVL21:
 465:.\main.c      ****     LCD_Char_1_PrintNumber(currentPWM);
 167              		.loc 1 465 0
 168 000a 064B     		ldr	r3, .L13
 169 000c 1878     		ldrb	r0, [r3]	@ zero_extendqisi2
 170 000e FFF7FEFF 		bl	LCD_Char_1_PrintU32Number
 171              	.LVL22:
 466:.\main.c      ****     
 467:.\main.c      ****     // Initial reference PWM
 468:.\main.c      ****     LCD_Char_1_Position(1, 10);
 172              		.loc 1 468 0
 173 0012 0120     		movs	r0, #1
 174 0014 0A21     		movs	r1, #10
 175 0016 FFF7FEFF 		bl	LCD_Char_1_Position
 176              	.LVL23:
 469:.\main.c      ****     LCD_Char_1_PrintNumber(initPWM);
 177              		.loc 1 469 0
 178 001a 034B     		ldr	r3, .L13+4
 179 001c 1888     		ldrh	r0, [r3]
 180 001e FFF7FEFF 		bl	LCD_Char_1_PrintU32Number
 181              	.LVL24:
 182 0022 08BD     		pop	{r3, pc}
 183              	.L14:
 184              		.align	2
 185              	.L13:
 186 0024 00000000 		.word	currentPWM
 187 0028 00000000 		.word	initPWM
 188              		.cfi_endproc
 189              	.LFE68:
 190              		.size	printPWM, .-printPWM
 191              		.section	.text.TIMER_INT,"ax",%progbits
 192              		.align	2
 193              		.global	TIMER_INT
 194              		.thumb
 195              		.thumb_func
 196              		.type	TIMER_INT, %function
 197              	TIMER_INT:
 198              	.LFB63:
 122:.\main.c      ****     Timer_1_STATUS;         // clear interrupt flag 
 199              		.loc 1 122 0
 200              		.cfi_startproc
 201              		@ args = 0, pretend = 0, frame = 0
 202              		@ frame_needed = 0, uses_anonymous_args = 0
 203 0000 10B5     		push	{r4, lr}
 204              		.cfi_def_cfa_offset 8
 205              		.cfi_offset 4, -8
 206              		.cfi_offset 14, -4
 123:.\main.c      ****     LED_Write(!LED_Read());
 207              		.loc 1 123 0
 208 0002 274B     		ldr	r3, .L22
 209 0004 1B78     		ldrb	r3, [r3]	@ zero_extendqisi2
 124:.\main.c      ****     timeCounter += 1;
 210              		.loc 1 124 0
 211 0006 FFF7FEFF 		bl	LED_Read
ARM GAS  C:\Users\student\AppData\Local\Temp\ccHwZbLt.s 			page 13


 212              	.LVL25:
 213 000a B0FA80F0 		clz	r0, r0
 214 000e 4009     		lsrs	r0, r0, #5
 215 0010 FFF7FEFF 		bl	LED_Write
 216              	.LVL26:
 125:.\main.c      ****     if ((userMode == TIMED_MODE) && (timeCounter == timeInterval))
 217              		.loc 1 125 0
 218 0014 234A     		ldr	r2, .L22+4
 219 0016 1368     		ldr	r3, [r2]
 220 0018 0133     		adds	r3, r3, #1
 221 001a 1360     		str	r3, [r2]
 126:.\main.c      ****     {
 222              		.loc 1 126 0
 223 001c 224A     		ldr	r2, .L22+8
 224 001e 1268     		ldr	r2, [r2]
 225 0020 032A     		cmp	r2, #3
 226 0022 3CD1     		bne	.L15
 126:.\main.c      ****     {
 227              		.loc 1 126 0 is_stmt 0 discriminator 1
 228 0024 214A     		ldr	r2, .L22+12
 229 0026 1268     		ldr	r2, [r2]
 230 0028 9342     		cmp	r3, r2
 231 002a 38D1     		bne	.L15
 232              	.LVL27:
 233              	.LBB2:
 129:.\main.c      ****         
 234              		.loc 1 129 0 is_stmt 1
 235 002c 1D4B     		ldr	r3, .L22+4
 236 002e 0022     		movs	r2, #0
 237 0030 1A60     		str	r2, [r3]
 132:.\main.c      ****         {
 238              		.loc 1 132 0
 239 0032 5B68     		ldr	r3, [r3, #4]
 240 0034 3BB9     		cbnz	r3, .L17
 134:.\main.c      ****             currentPWM = timePrefs[0];
 241              		.loc 1 134 0
 242 0036 0122     		movs	r2, #1
 243 0038 1A4B     		ldr	r3, .L22+4
 244 003a 5A60     		str	r2, [r3, #4]
 135:.\main.c      ****             done = 1;
 245              		.loc 1 135 0
 246 003c 1B4B     		ldr	r3, .L22+12
 247 003e 5A68     		ldr	r2, [r3, #4]
 248 0040 1B4B     		ldr	r3, .L22+16
 249 0042 1A70     		strb	r2, [r3]
 250              	.LVL28:
 251 0044 22E0     		b	.L18
 252              	.LVL29:
 253              	.L17:
 138:.\main.c      ****         {
 254              		.loc 1 138 0 discriminator 1
 255 0046 012B     		cmp	r3, #1
 256 0048 0AD1     		bne	.L19
 140:.\main.c      ****             timeMode = AFTERNOON;   
 257              		.loc 1 140 0
 258 004a 0120     		movs	r0, #1
 259 004c FFF7FEFF 		bl	LED_Mode_Write
ARM GAS  C:\Users\student\AppData\Local\Temp\ccHwZbLt.s 			page 14


 260              	.LVL30:
 141:.\main.c      ****             currentPWM = timePrefs[1];
 261              		.loc 1 141 0
 262 0050 0222     		movs	r2, #2
 263 0052 144B     		ldr	r3, .L22+4
 264 0054 5A60     		str	r2, [r3, #4]
 142:.\main.c      ****             done = 1;
 265              		.loc 1 142 0
 266 0056 154B     		ldr	r3, .L22+12
 267 0058 9A68     		ldr	r2, [r3, #8]
 268 005a 154B     		ldr	r3, .L22+16
 269 005c 1A70     		strb	r2, [r3]
 270              	.LVL31:
 143:.\main.c      ****         }
 271              		.loc 1 143 0
 272 005e 15E0     		b	.L18
 273              	.LVL32:
 274              	.L19:
 145:.\main.c      ****         {
 275              		.loc 1 145 0 discriminator 1
 276 0060 022B     		cmp	r3, #2
 277 0062 0AD1     		bne	.L20
 147:.\main.c      ****             timeMode = EVENING;   
 278              		.loc 1 147 0
 279 0064 0020     		movs	r0, #0
 280 0066 FFF7FEFF 		bl	LED_Mode_Write
 281              	.LVL33:
 148:.\main.c      ****             currentPWM = timePrefs[2];
 282              		.loc 1 148 0
 283 006a 0322     		movs	r2, #3
 284 006c 0D4B     		ldr	r3, .L22+4
 285 006e 5A60     		str	r2, [r3, #4]
 149:.\main.c      ****             done = 1;
 286              		.loc 1 149 0
 287 0070 0E4B     		ldr	r3, .L22+12
 288 0072 DA68     		ldr	r2, [r3, #12]
 289 0074 0E4B     		ldr	r3, .L22+16
 290 0076 1A70     		strb	r2, [r3]
 291              	.LVL34:
 150:.\main.c      ****         }
 292              		.loc 1 150 0
 293 0078 08E0     		b	.L18
 294              	.LVL35:
 295              	.L20:
 152:.\main.c      ****         {
 296              		.loc 1 152 0 discriminator 1
 297 007a 032B     		cmp	r3, #3
 298 007c 06D1     		bne	.L18
 154:.\main.c      ****             userMode = MANUAL_MODE;
 299              		.loc 1 154 0
 300 007e 0023     		movs	r3, #0
 301 0080 084A     		ldr	r2, .L22+4
 302 0082 5360     		str	r3, [r2, #4]
 155:.\main.c      ****             Timer_1_Stop();
 303              		.loc 1 155 0
 304 0084 084A     		ldr	r2, .L22+8
 305 0086 1360     		str	r3, [r2]
ARM GAS  C:\Users\student\AppData\Local\Temp\ccHwZbLt.s 			page 15


 156:.\main.c      ****             done = 1;
 306              		.loc 1 156 0
 307 0088 FFF7FEFF 		bl	Timer_1_Stop
 308              	.LVL36:
 309              	.L18:
 161:.\main.c      ****         printPWM();
 310              		.loc 1 161 0
 311 008c 084C     		ldr	r4, .L22+16
 312 008e 2078     		ldrb	r0, [r4]	@ zero_extendqisi2
 313 0090 FFF7FEFF 		bl	sendPWM
 314              	.LVL37:
 162:.\main.c      ****         
 315              		.loc 1 162 0
 316 0094 FFF7FEFF 		bl	printPWM
 317              	.LVL38:
 165:.\main.c      ****     }
 318              		.loc 1 165 0
 319 0098 2278     		ldrb	r2, [r4]	@ zero_extendqisi2
 320 009a 064B     		ldr	r3, .L22+20
 321 009c 1A60     		str	r2, [r3]
 322              	.L15:
 323 009e 10BD     		pop	{r4, pc}
 324              	.L23:
 325              		.align	2
 326              	.L22:
 327 00a0 034F0040 		.word	1073762051
 328 00a4 00000000 		.word	.LANCHOR0
 329 00a8 00000000 		.word	userMode
 330 00ac 00000000 		.word	.LANCHOR1
 331 00b0 00000000 		.word	currentPWM
 332 00b4 00000000 		.word	initPWM
 333              	.LBE2:
 334              		.cfi_endproc
 335              	.LFE63:
 336              		.size	TIMER_INT, .-TIMER_INT
 337              		.section	.text.RX_INT,"ax",%progbits
 338              		.align	2
 339              		.global	RX_INT
 340              		.thumb
 341              		.thumb_func
 342              		.type	RX_INT, %function
 343              	RX_INT:
 344              	.LFB64:
 171:.\main.c      ****     //currentPWM = UART_1_ReadRxData();
 345              		.loc 1 171 0
 346              		.cfi_startproc
 347              		@ args = 0, pretend = 0, frame = 0
 348              		@ frame_needed = 0, uses_anonymous_args = 0
 349 0000 38B5     		push	{r3, r4, r5, lr}
 350              		.cfi_def_cfa_offset 16
 351              		.cfi_offset 3, -16
 352              		.cfi_offset 4, -12
 353              		.cfi_offset 5, -8
 354              		.cfi_offset 14, -4
 174:.\main.c      **** 
 355              		.loc 1 174 0
 356 0002 FFF7FEFF 		bl	UART_1_ReadRxData
ARM GAS  C:\Users\student\AppData\Local\Temp\ccHwZbLt.s 			page 16


 357              	.LVL39:
 177:.\main.c      ****     {
 358              		.loc 1 177 0
 359 0006 3128     		cmp	r0, #49
 360 0008 0BD1     		bne	.L25
 177:.\main.c      ****     {
 361              		.loc 1 177 0 is_stmt 0 discriminator 1
 362 000a 4C4B     		ldr	r3, .L35
 363 000c 1B68     		ldr	r3, [r3]
 364 000e 43B1     		cbz	r3, .L25
 179:.\main.c      ****         {
 365              		.loc 1 179 0 is_stmt 1
 366 0010 032B     		cmp	r3, #3
 367 0012 00F09180 		beq	.L24
 181:.\main.c      ****             LED_Mode_Write(userMode);            
 368              		.loc 1 181 0
 369 0016 0020     		movs	r0, #0
 370              	.LVL40:
 371 0018 484B     		ldr	r3, .L35
 372 001a 1860     		str	r0, [r3]
 182:.\main.c      ****         }
 373              		.loc 1 182 0
 374 001c FFF7FEFF 		bl	LED_Mode_Write
 375              	.LVL41:
 376 0020 38BD     		pop	{r3, r4, r5, pc}
 377              	.LVL42:
 378              	.L25:
 187:.\main.c      ****     {
 379              		.loc 1 187 0
 380 0022 3228     		cmp	r0, #50
 381 0024 11D1     		bne	.L27
 187:.\main.c      ****     {
 382              		.loc 1 187 0 is_stmt 0 discriminator 1
 383 0026 454B     		ldr	r3, .L35
 384 0028 1B68     		ldr	r3, [r3]
 385 002a 012B     		cmp	r3, #1
 386 002c 0DD0     		beq	.L27
 189:.\main.c      ****         LED_Mode_Write(userMode);
 387              		.loc 1 189 0 is_stmt 1
 388 002e 0120     		movs	r0, #1
 389              	.LVL43:
 390 0030 424B     		ldr	r3, .L35
 391 0032 1860     		str	r0, [r3]
 190:.\main.c      ****         
 392              		.loc 1 190 0
 393 0034 FFF7FEFF 		bl	LED_Mode_Write
 394              	.LVL44:
 193:.\main.c      **** 
 395              		.loc 1 193 0
 396 0038 414B     		ldr	r3, .L35+4
 397 003a 1A78     		ldrb	r2, [r3]	@ zero_extendqisi2
 398 003c 414B     		ldr	r3, .L35+8
 399 003e 1A60     		str	r2, [r3]
 196:.\main.c      ****         
 400              		.loc 1 196 0
 401 0040 414B     		ldr	r3, .L35+12
 402 0042 1A68     		ldr	r2, [r3]
ARM GAS  C:\Users\student\AppData\Local\Temp\ccHwZbLt.s 			page 17


 403 0044 414B     		ldr	r3, .L35+16
 404 0046 1A60     		str	r2, [r3]
 405 0048 38BD     		pop	{r3, r4, r5, pc}
 406              	.LVL45:
 407              	.L27:
 213:.\main.c      ****             (amuletData <= 255) && (amuletData >= 245)) // can manually adjust in simulation
 408              		.loc 1 213 0
 409 004a 3C4B     		ldr	r3, .L35
 410 004c 1B68     		ldr	r3, [r3]
 411 004e 0BB1     		cbz	r3, .L28
 213:.\main.c      ****             (amuletData <= 255) && (amuletData >= 245)) // can manually adjust in simulation
 412              		.loc 1 213 0 is_stmt 0 discriminator 1
 413 0050 032B     		cmp	r3, #3
 414 0052 10D1     		bne	.L29
 415              	.L28:
 214:.\main.c      ****     {
 416              		.loc 1 214 0 is_stmt 1
 417 0054 F428     		cmp	r0, #244
 418 0056 0ED9     		bls	.L29
 216:.\main.c      ****         printPWM();
 419              		.loc 1 216 0
 420 0058 394C     		ldr	r4, .L35+4
 421 005a 2070     		strb	r0, [r4]
 217:.\main.c      ****         sendPWM(currentPWM);
 422              		.loc 1 217 0
 423 005c FFF7FEFF 		bl	printPWM
 424              	.LVL46:
 218:.\main.c      ****         if (userMode == TIMED_MODE)
 425              		.loc 1 218 0
 426 0060 2078     		ldrb	r0, [r4]	@ zero_extendqisi2
 427 0062 FFF7FEFF 		bl	sendPWM
 428              	.LVL47:
 219:.\main.c      ****         {
 429              		.loc 1 219 0
 430 0066 354B     		ldr	r3, .L35
 431 0068 1B68     		ldr	r3, [r3]
 432 006a 032B     		cmp	r3, #3
 433 006c 64D1     		bne	.L24
 221:.\main.c      ****         }
 434              		.loc 1 221 0
 435 006e 2278     		ldrb	r2, [r4]	@ zero_extendqisi2
 436 0070 344B     		ldr	r3, .L35+8
 437 0072 1A60     		str	r2, [r3]
 438 0074 38BD     		pop	{r3, r4, r5, pc}
 439              	.LVL48:
 440              	.L29:
 226:.\main.c      ****     {
 441              		.loc 1 226 0
 442 0076 4128     		cmp	r0, #65
 443 0078 07D1     		bne	.L30
 226:.\main.c      ****     {
 444              		.loc 1 226 0 is_stmt 0 discriminator 1
 445 007a 022B     		cmp	r3, #2
 446 007c 05D0     		beq	.L30
 226:.\main.c      ****     {
 447              		.loc 1 226 0 discriminator 2
 448 007e 032B     		cmp	r3, #3
ARM GAS  C:\Users\student\AppData\Local\Temp\ccHwZbLt.s 			page 18


 449 0080 03D0     		beq	.L30
 228:.\main.c      ****     }
 450              		.loc 1 228 0 is_stmt 1
 451 0082 0222     		movs	r2, #2
 452 0084 2D4B     		ldr	r3, .L35
 453 0086 1A60     		str	r2, [r3]
 454 0088 38BD     		pop	{r3, r4, r5, pc}
 455              	.L30:
 232:.\main.c      ****     {
 456              		.loc 1 232 0
 457 008a 022B     		cmp	r3, #2
 458 008c 10D1     		bne	.L31
 232:.\main.c      ****     {
 459              		.loc 1 232 0 is_stmt 0 discriminator 1
 460 008e EF28     		cmp	r0, #239
 461 0090 0ED8     		bhi	.L31
 232:.\main.c      ****     {
 462              		.loc 1 232 0 discriminator 2
 463 0092 E428     		cmp	r0, #228
 464 0094 0CD9     		bls	.L31
 465              	.LBB3:
 234:.\main.c      ****         timePrefs[0] = brightnessVal;
 466              		.loc 1 234 0 is_stmt 1
 467 0096 60F00F03 		orn	r3, r0, #15
 468 009a DBB2     		uxtb	r3, r3
 469              	.LVL49:
 235:.\main.c      ****         currentPWM = brightnessVal;
 470              		.loc 1 235 0
 471 009c 2C4A     		ldr	r2, .L35+20
 472 009e 5360     		str	r3, [r2, #4]
 236:.\main.c      ****         printPWM();
 473              		.loc 1 236 0
 474 00a0 274C     		ldr	r4, .L35+4
 475 00a2 2370     		strb	r3, [r4]
 237:.\main.c      ****         sendPWM(currentPWM);
 476              		.loc 1 237 0
 477 00a4 FFF7FEFF 		bl	printPWM
 478              	.LVL50:
 238:.\main.c      ****     }
 479              		.loc 1 238 0
 480 00a8 2078     		ldrb	r0, [r4]	@ zero_extendqisi2
 481 00aa FFF7FEFF 		bl	sendPWM
 482              	.LVL51:
 483              	.LBE3:
 233:.\main.c      ****         int brightnessVal = (amuletData | 0xf0);
 484              		.loc 1 233 0
 485 00ae 38BD     		pop	{r3, r4, r5, pc}
 486              	.LVL52:
 487              	.L31:
 242:.\main.c      ****     {
 488              		.loc 1 242 0
 489 00b0 022B     		cmp	r3, #2
 490 00b2 10D1     		bne	.L32
 242:.\main.c      ****     {
 491              		.loc 1 242 0 is_stmt 0 discriminator 1
 492 00b4 DF28     		cmp	r0, #223
 493 00b6 0ED8     		bhi	.L32
ARM GAS  C:\Users\student\AppData\Local\Temp\ccHwZbLt.s 			page 19


 242:.\main.c      ****     {
 494              		.loc 1 242 0 discriminator 2
 495 00b8 D428     		cmp	r0, #212
 496 00ba 0CD9     		bls	.L32
 497              	.LBB4:
 244:.\main.c      ****         timePrefs[1] = brightnessVal;
 498              		.loc 1 244 0 is_stmt 1
 499 00bc 60F00F03 		orn	r3, r0, #15
 500 00c0 DBB2     		uxtb	r3, r3
 501              	.LVL53:
 245:.\main.c      ****         currentPWM = brightnessVal;
 502              		.loc 1 245 0
 503 00c2 234A     		ldr	r2, .L35+20
 504 00c4 9360     		str	r3, [r2, #8]
 246:.\main.c      ****         printPWM();
 505              		.loc 1 246 0
 506 00c6 1E4C     		ldr	r4, .L35+4
 507 00c8 2370     		strb	r3, [r4]
 247:.\main.c      ****         sendPWM(currentPWM);
 508              		.loc 1 247 0
 509 00ca FFF7FEFF 		bl	printPWM
 510              	.LVL54:
 248:.\main.c      ****     }
 511              		.loc 1 248 0
 512 00ce 2078     		ldrb	r0, [r4]	@ zero_extendqisi2
 513 00d0 FFF7FEFF 		bl	sendPWM
 514              	.LVL55:
 515              	.LBE4:
 243:.\main.c      ****         int brightnessVal = (amuletData | 0xf0);
 516              		.loc 1 243 0
 517 00d4 38BD     		pop	{r3, r4, r5, pc}
 518              	.LVL56:
 519              	.L32:
 252:.\main.c      ****     {
 520              		.loc 1 252 0
 521 00d6 022B     		cmp	r3, #2
 522 00d8 10D1     		bne	.L33
 252:.\main.c      ****     {
 523              		.loc 1 252 0 is_stmt 0 discriminator 1
 524 00da CF28     		cmp	r0, #207
 525 00dc 0ED8     		bhi	.L33
 252:.\main.c      ****     {
 526              		.loc 1 252 0 discriminator 2
 527 00de C428     		cmp	r0, #196
 528 00e0 0CD9     		bls	.L33
 529              	.LBB5:
 254:.\main.c      ****         timePrefs[2] = brightnessVal;
 530              		.loc 1 254 0 is_stmt 1
 531 00e2 60F00F03 		orn	r3, r0, #15
 532 00e6 DBB2     		uxtb	r3, r3
 533              	.LVL57:
 255:.\main.c      ****         currentPWM = brightnessVal;
 534              		.loc 1 255 0
 535 00e8 194A     		ldr	r2, .L35+20
 536 00ea D360     		str	r3, [r2, #12]
 256:.\main.c      ****         printPWM();
 537              		.loc 1 256 0
ARM GAS  C:\Users\student\AppData\Local\Temp\ccHwZbLt.s 			page 20


 538 00ec 144C     		ldr	r4, .L35+4
 539 00ee 2370     		strb	r3, [r4]
 257:.\main.c      ****         sendPWM(currentPWM);
 540              		.loc 1 257 0
 541 00f0 FFF7FEFF 		bl	printPWM
 542              	.LVL58:
 258:.\main.c      ****     }
 543              		.loc 1 258 0
 544 00f4 2078     		ldrb	r0, [r4]	@ zero_extendqisi2
 545 00f6 FFF7FEFF 		bl	sendPWM
 546              	.LVL59:
 547              	.LBE5:
 253:.\main.c      ****         int brightnessVal = (amuletData | 0xf0);
 548              		.loc 1 253 0
 549 00fa 38BD     		pop	{r3, r4, r5, pc}
 550              	.LVL60:
 551              	.L33:
 262:.\main.c      ****     {
 552              		.loc 1 262 0
 553 00fc 4228     		cmp	r0, #66
 554 00fe 1BD1     		bne	.L24
 262:.\main.c      ****     {
 555              		.loc 1 262 0 is_stmt 0 discriminator 1
 556 0100 032B     		cmp	r3, #3
 557 0102 19D0     		beq	.L24
 265:.\main.c      ****         timeCounter = 0;
 558              		.loc 1 265 0 is_stmt 1
 559 0104 0322     		movs	r2, #3
 560 0106 0D4B     		ldr	r3, .L35
 561 0108 1A60     		str	r2, [r3]
 266:.\main.c      ****         timeMode = MORNING;
 562              		.loc 1 266 0
 563 010a 124B     		ldr	r3, .L35+24
 564 010c 0024     		movs	r4, #0
 565 010e 1C60     		str	r4, [r3]
 267:.\main.c      ****         
 566              		.loc 1 267 0
 567 0110 0122     		movs	r2, #1
 568 0112 5A60     		str	r2, [r3, #4]
 270:.\main.c      ****         printPWM();
 569              		.loc 1 270 0
 570 0114 0E4B     		ldr	r3, .L35+20
 571 0116 5B68     		ldr	r3, [r3, #4]
 572 0118 094D     		ldr	r5, .L35+4
 573 011a 2B70     		strb	r3, [r5]
 271:.\main.c      ****         
 574              		.loc 1 271 0
 575 011c FFF7FEFF 		bl	printPWM
 576              	.LVL61:
 274:.\main.c      ****         initPhoto = timeAvgPhoto;
 577              		.loc 1 274 0
 578 0120 2A78     		ldrb	r2, [r5]	@ zero_extendqisi2
 579 0122 084B     		ldr	r3, .L35+8
 580 0124 1A60     		str	r2, [r3]
 275:.\main.c      ****         
 581              		.loc 1 275 0
 582 0126 084B     		ldr	r3, .L35+12
ARM GAS  C:\Users\student\AppData\Local\Temp\ccHwZbLt.s 			page 21


 583 0128 1A68     		ldr	r2, [r3]
 584 012a 084B     		ldr	r3, .L35+16
 585 012c 1A60     		str	r2, [r3]
 278:.\main.c      ****         LED_Mode_Write(0);
 586              		.loc 1 278 0
 587 012e FFF7FEFF 		bl	Timer_1_Start
 588              	.LVL62:
 279:.\main.c      ****     }
 589              		.loc 1 279 0
 590 0132 2046     		mov	r0, r4
 591 0134 FFF7FEFF 		bl	LED_Mode_Write
 592              	.LVL63:
 593              	.L24:
 594 0138 38BD     		pop	{r3, r4, r5, pc}
 595              	.L36:
 596 013a 00BF     		.align	2
 597              	.L35:
 598 013c 00000000 		.word	userMode
 599 0140 00000000 		.word	currentPWM
 600 0144 00000000 		.word	initPWM
 601 0148 00000000 		.word	timeAvgPhoto
 602 014c 00000000 		.word	initPhoto
 603 0150 00000000 		.word	.LANCHOR1
 604 0154 00000000 		.word	.LANCHOR0
 605              		.cfi_endproc
 606              	.LFE64:
 607              		.size	RX_INT, .-RX_INT
 608              		.section	.text.pushPhotoBuffer,"ax",%progbits
 609              		.align	2
 610              		.global	pushPhotoBuffer
 611              		.thumb
 612              		.thumb_func
 613              		.type	pushPhotoBuffer, %function
 614              	pushPhotoBuffer:
 615              	.LFB69:
 470:.\main.c      **** }
 471:.\main.c      **** 
 472:.\main.c      **** /******************/
 473:.\main.c      **** /* Photoresistors */
 474:.\main.c      **** /******************/
 475:.\main.c      **** 
 476:.\main.c      **** void pushPhotoBuffer(int photoValue)
 477:.\main.c      **** {
 616              		.loc 1 477 0
 617              		.cfi_startproc
 618              		@ args = 0, pretend = 0, frame = 0
 619              		@ frame_needed = 0, uses_anonymous_args = 0
 620              		@ link register save eliminated.
 621              	.LVL64:
 622 0000 10B4     		push	{r4}
 623              		.cfi_def_cfa_offset 4
 624              		.cfi_offset 4, -4
 478:.\main.c      ****     int i;
 479:.\main.c      ****     for (i=bufferLength-1; i>=1; i=i-1)
 625              		.loc 1 479 0
 626 0002 094B     		ldr	r3, .L41
 627 0004 1B69     		ldr	r3, [r3, #16]
ARM GAS  C:\Users\student\AppData\Local\Temp\ccHwZbLt.s 			page 22


 628 0006 013B     		subs	r3, r3, #1
 629              	.LVL65:
 630 0008 06E0     		b	.L38
 631              	.L39:
 480:.\main.c      ****     {
 481:.\main.c      ****         photoBuffer[i] = photoBuffer[i-1];
 632              		.loc 1 481 0 discriminator 3
 633 000a 5A1E     		subs	r2, r3, #1
 634 000c 0749     		ldr	r1, .L41+4
 635 000e 51F82240 		ldr	r4, [r1, r2, lsl #2]
 636 0012 41F82340 		str	r4, [r1, r3, lsl #2]
 637              	.LVL66:
 479:.\main.c      ****     {
 638              		.loc 1 479 0 discriminator 3
 639 0016 1346     		mov	r3, r2
 640              	.LVL67:
 641              	.L38:
 479:.\main.c      ****     {
 642              		.loc 1 479 0 is_stmt 0 discriminator 1
 643 0018 002B     		cmp	r3, #0
 644 001a F6DC     		bgt	.L39
 482:.\main.c      ****     }
 483:.\main.c      ****     photoBuffer[0] = photoValue;
 645              		.loc 1 483 0 is_stmt 1
 646 001c 034B     		ldr	r3, .L41+4
 647              	.LVL68:
 648 001e 1860     		str	r0, [r3]
 484:.\main.c      **** }
 649              		.loc 1 484 0
 650 0020 5DF8044B 		ldr	r4, [sp], #4
 651              		.cfi_restore 4
 652              		.cfi_def_cfa_offset 0
 653 0024 7047     		bx	lr
 654              	.L42:
 655 0026 00BF     		.align	2
 656              	.L41:
 657 0028 00000000 		.word	.LANCHOR1
 658 002c 00000000 		.word	photoBuffer
 659              		.cfi_endproc
 660              	.LFE69:
 661              		.size	pushPhotoBuffer, .-pushPhotoBuffer
 662              		.section	.text.averagePhotoBuffer,"ax",%progbits
 663              		.align	2
 664              		.global	averagePhotoBuffer
 665              		.thumb
 666              		.thumb_func
 667              		.type	averagePhotoBuffer, %function
 668              	averagePhotoBuffer:
 669              	.LFB70:
 485:.\main.c      **** 
 486:.\main.c      **** int averagePhotoBuffer()
 487:.\main.c      **** {
 670              		.loc 1 487 0
 671              		.cfi_startproc
 672              		@ args = 0, pretend = 0, frame = 0
 673              		@ frame_needed = 0, uses_anonymous_args = 0
 674              		@ link register save eliminated.
ARM GAS  C:\Users\student\AppData\Local\Temp\ccHwZbLt.s 			page 23


 675              	.LVL69:
 488:.\main.c      ****     int total = 0;
 489:.\main.c      ****     int i;
 490:.\main.c      ****     for (i=0; i<bufferLength; i=i+1)
 676              		.loc 1 490 0
 677 0000 0023     		movs	r3, #0
 488:.\main.c      ****     int total = 0;
 678              		.loc 1 488 0
 679 0002 1846     		mov	r0, r3
 680              		.loc 1 490 0
 681 0004 04E0     		b	.L44
 682              	.LVL70:
 683              	.L45:
 491:.\main.c      ****     {
 492:.\main.c      ****         total += photoBuffer[i];
 684              		.loc 1 492 0 discriminator 3
 685 0006 064A     		ldr	r2, .L46
 686 0008 52F82320 		ldr	r2, [r2, r3, lsl #2]
 687 000c 1044     		add	r0, r0, r2
 688              	.LVL71:
 490:.\main.c      ****     {
 689              		.loc 1 490 0 discriminator 3
 690 000e 0133     		adds	r3, r3, #1
 691              	.LVL72:
 692              	.L44:
 490:.\main.c      ****     {
 693              		.loc 1 490 0 is_stmt 0 discriminator 1
 694 0010 044A     		ldr	r2, .L46+4
 695 0012 1269     		ldr	r2, [r2, #16]
 696 0014 9342     		cmp	r3, r2
 697 0016 F6DB     		blt	.L45
 493:.\main.c      ****     }
 494:.\main.c      ****     return total/bufferLength;
 495:.\main.c      **** }
 698              		.loc 1 495 0 is_stmt 1
 699 0018 90FBF2F0 		sdiv	r0, r0, r2
 700              	.LVL73:
 701 001c 7047     		bx	lr
 702              	.L47:
 703 001e 00BF     		.align	2
 704              	.L46:
 705 0020 00000000 		.word	photoBuffer
 706 0024 00000000 		.word	.LANCHOR1
 707              		.cfi_endproc
 708              	.LFE70:
 709              		.size	averagePhotoBuffer, .-averagePhotoBuffer
 710              		.section	.text.printPhotoresistor,"ax",%progbits
 711              		.align	2
 712              		.global	printPhotoresistor
 713              		.thumb
 714              		.thumb_func
 715              		.type	printPhotoresistor, %function
 716              	printPhotoresistor:
 717              	.LFB71:
 496:.\main.c      **** 
 497:.\main.c      **** void printPhotoresistor(int currentPhoto, int timeAvgPhoto)
 498:.\main.c      **** {
ARM GAS  C:\Users\student\AppData\Local\Temp\ccHwZbLt.s 			page 24


 718              		.loc 1 498 0
 719              		.cfi_startproc
 720              		@ args = 0, pretend = 0, frame = 0
 721              		@ frame_needed = 0, uses_anonymous_args = 0
 722              	.LVL74:
 723 0000 10B5     		push	{r4, lr}
 724              		.cfi_def_cfa_offset 8
 725              		.cfi_offset 4, -8
 726              		.cfi_offset 14, -4
 727 0002 0C46     		mov	r4, r1
 499:.\main.c      ****     // Current time averaged photoresistor value
 500:.\main.c      ****     LCD_Char_1_Position(0, 7);
 728              		.loc 1 500 0
 729 0004 0020     		movs	r0, #0
 730              	.LVL75:
 731 0006 0721     		movs	r1, #7
 732              	.LVL76:
 733 0008 FFF7FEFF 		bl	LCD_Char_1_Position
 734              	.LVL77:
 501:.\main.c      **** 	LCD_Char_1_PrintString("     ");
 735              		.loc 1 501 0
 736 000c 0948     		ldr	r0, .L50
 737 000e FFF7FEFF 		bl	LCD_Char_1_PrintString
 738              	.LVL78:
 502:.\main.c      ****     LCD_Char_1_Position(0, 7);
 739              		.loc 1 502 0
 740 0012 0020     		movs	r0, #0
 741 0014 0721     		movs	r1, #7
 742 0016 FFF7FEFF 		bl	LCD_Char_1_Position
 743              	.LVL79:
 503:.\main.c      ****   	LCD_Char_1_PrintNumber(timeAvgPhoto);
 744              		.loc 1 503 0
 745 001a A0B2     		uxth	r0, r4
 746 001c FFF7FEFF 		bl	LCD_Char_1_PrintU32Number
 747              	.LVL80:
 504:.\main.c      ****     
 505:.\main.c      ****     // Reference photoresistor value
 506:.\main.c      ****     LCD_Char_1_Position(0, 12);
 748              		.loc 1 506 0
 749 0020 0020     		movs	r0, #0
 750 0022 0C21     		movs	r1, #12
 751 0024 FFF7FEFF 		bl	LCD_Char_1_Position
 752              	.LVL81:
 507:.\main.c      ****   	LCD_Char_1_PrintNumber(initPhoto);
 753              		.loc 1 507 0
 754 0028 034B     		ldr	r3, .L50+4
 755 002a 1888     		ldrh	r0, [r3]
 756 002c FFF7FEFF 		bl	LCD_Char_1_PrintU32Number
 757              	.LVL82:
 758 0030 10BD     		pop	{r4, pc}
 759              	.LVL83:
 760              	.L51:
 761 0032 00BF     		.align	2
 762              	.L50:
 763 0034 00000000 		.word	.LC0
 764 0038 00000000 		.word	initPhoto
 765              		.cfi_endproc
ARM GAS  C:\Users\student\AppData\Local\Temp\ccHwZbLt.s 			page 25


 766              	.LFE71:
 767              		.size	printPhotoresistor, .-printPhotoresistor
 768              		.section	.text.readPhotoresistor,"ax",%progbits
 769              		.align	2
 770              		.global	readPhotoresistor
 771              		.thumb
 772              		.thumb_func
 773              		.type	readPhotoresistor, %function
 774              	readPhotoresistor:
 775              	.LFB72:
 508:.\main.c      **** }
 509:.\main.c      **** 
 510:.\main.c      **** int readPhotoresistor()
 511:.\main.c      **** {
 776              		.loc 1 511 0
 777              		.cfi_startproc
 778              		@ args = 0, pretend = 0, frame = 0
 779              		@ frame_needed = 0, uses_anonymous_args = 0
 780 0000 10B5     		push	{r4, lr}
 781              		.cfi_def_cfa_offset 8
 782              		.cfi_offset 4, -8
 783              		.cfi_offset 14, -4
 784              	.LVL84:
 512:.\main.c      ****     uint16 adcResult;
 513:.\main.c      ****     unsigned char j = 100;				// milliseconds delay
 514:.\main.c      ****     if( ADC_DelSig_1_IsEndConversion(ADC_DelSig_1_WAIT_FOR_RESULT) )
 785              		.loc 1 514 0
 786 0002 0020     		movs	r0, #0
 787 0004 FFF7FEFF 		bl	ADC_DelSig_1_IsEndConversion
 788              	.LVL85:
 789 0008 98B1     		cbz	r0, .L53
 515:.\main.c      **** 		{
 516:.\main.c      **** 			adcResult = ADC_DelSig_1_GetResult16();		// read the adc and assign the value adcResult 
 790              		.loc 1 516 0
 791 000a FFF7FEFF 		bl	ADC_DelSig_1_GetResult16
 792              	.LVL86:
 793 000e 84B2     		uxth	r4, r0
 794              	.LVL87:
 517:.\main.c      ****        		if (adcResult & 0x8000)
 795              		.loc 1 517 0
 796 0010 0028     		cmp	r0, #0
 797 0012 00DA     		bge	.L54
 518:.\main.c      ****        		{
 519:.\main.c      ****         		adcResult = 0;                          // ignore negative ADC results
 798              		.loc 1 519 0
 799 0014 0024     		movs	r4, #0
 800              	.LVL88:
 801              	.L54:
 520:.\main.c      ****        		}
 521:.\main.c      ****             if (adcResult < 1750)
 802              		.loc 1 521 0
 803 0016 40F2D563 		movw	r3, #1749
 804 001a 9C42     		cmp	r4, r3
 805 001c 01D8     		bhi	.L55
 522:.\main.c      ****             {
 523:.\main.c      ****                 adcResult = 1750;   
 806              		.loc 1 523 0
ARM GAS  C:\Users\student\AppData\Local\Temp\ccHwZbLt.s 			page 26


 807 001e 40F2D664 		movw	r4, #1750
 808              	.LVL89:
 809              	.L55:
 524:.\main.c      ****             }
 525:.\main.c      ****             if (adcResult > 4250)
 810              		.loc 1 525 0
 811 0022 41F29A03 		movw	r3, #4250
 812 0026 9C42     		cmp	r4, r3
 813 0028 00D9     		bls	.L56
 526:.\main.c      ****             {
 527:.\main.c      ****                 adcResult = 4250;   
 814              		.loc 1 527 0
 815 002a 1C46     		mov	r4, r3
 816              	.LVL90:
 817              	.L56:
 528:.\main.c      ****             }
 529:.\main.c      **** 			CyDelay(j);									// delay in milliseconds
 818              		.loc 1 529 0
 819 002c 6420     		movs	r0, #100
 820 002e FFF7FEFF 		bl	CyDelay
 821              	.LVL91:
 822              	.L53:
 530:.\main.c      **** 		}
 531:.\main.c      ****     return adcResult;
 532:.\main.c      **** }
 823              		.loc 1 532 0
 824 0032 2046     		mov	r0, r4
 825 0034 10BD     		pop	{r4, pc}
 826              		.cfi_endproc
 827              	.LFE72:
 828              		.size	readPhotoresistor, .-readPhotoresistor
 829 0036 00BF     		.section	.text.getAvgPhotoresistors,"ax",%progbits
 830              		.align	2
 831              		.global	getAvgPhotoresistors
 832              		.thumb
 833              		.thumb_func
 834              		.type	getAvgPhotoresistors, %function
 835              	getAvgPhotoresistors:
 836              	.LFB73:
 533:.\main.c      **** 
 534:.\main.c      **** int getAvgPhotoresistors()
 535:.\main.c      **** {
 837              		.loc 1 535 0
 838              		.cfi_startproc
 839              		@ args = 0, pretend = 0, frame = 0
 840              		@ frame_needed = 0, uses_anonymous_args = 0
 841 0000 38B5     		push	{r3, r4, r5, lr}
 842              		.cfi_def_cfa_offset 16
 843              		.cfi_offset 3, -16
 844              		.cfi_offset 4, -12
 845              		.cfi_offset 5, -8
 846              		.cfi_offset 14, -4
 847              	.LVL92:
 536:.\main.c      ****     int numMux = 3;
 537:.\main.c      ****     int totalReading = 0;
 538:.\main.c      ****     int i;
 539:.\main.c      ****     for (i=1; i<=numMux; i=i+1)
ARM GAS  C:\Users\student\AppData\Local\Temp\ccHwZbLt.s 			page 27


 848              		.loc 1 539 0
 849 0002 0124     		movs	r4, #1
 537:.\main.c      ****     int i;
 850              		.loc 1 537 0
 851 0004 0025     		movs	r5, #0
 852              		.loc 1 539 0
 853 0006 09E0     		b	.L62
 854              	.LVL93:
 855              	.L63:
 540:.\main.c      ****     {
 541:.\main.c      ****         AMux_1_Select(i);
 856              		.loc 1 541 0 discriminator 3
 857 0008 E0B2     		uxtb	r0, r4
 858 000a FFF7FEFF 		bl	AMux_1_Select
 859              	.LVL94:
 542:.\main.c      ****         CyDelay(100);
 860              		.loc 1 542 0 discriminator 3
 861 000e 6420     		movs	r0, #100
 862 0010 FFF7FEFF 		bl	CyDelay
 863              	.LVL95:
 543:.\main.c      ****         totalReading += readPhotoresistor();
 864              		.loc 1 543 0 discriminator 3
 865 0014 FFF7FEFF 		bl	readPhotoresistor
 866              	.LVL96:
 867 0018 0544     		add	r5, r5, r0
 868              	.LVL97:
 539:.\main.c      ****     {
 869              		.loc 1 539 0 discriminator 3
 870 001a 0134     		adds	r4, r4, #1
 871              	.LVL98:
 872              	.L62:
 539:.\main.c      ****     {
 873              		.loc 1 539 0 is_stmt 0 discriminator 1
 874 001c 032C     		cmp	r4, #3
 875 001e F3DD     		ble	.L63
 544:.\main.c      ****     }
 545:.\main.c      ****     return totalReading/numMux;         // current average photoresistor   
 876              		.loc 1 545 0 is_stmt 1
 877 0020 0248     		ldr	r0, .L65
 878 0022 80FB0530 		smull	r3, r0, r0, r5
 546:.\main.c      **** }
 879              		.loc 1 546 0
 880 0026 A0EBE570 		sub	r0, r0, r5, asr #31
 881 002a 38BD     		pop	{r3, r4, r5, pc}
 882              	.LVL99:
 883              	.L66:
 884              		.align	2
 885              	.L65:
 886 002c 56555555 		.word	1431655766
 887              		.cfi_endproc
 888              	.LFE73:
 889              		.size	getAvgPhotoresistors, .-getAvgPhotoresistors
 890              		.section	.text.getPhotoDiff,"ax",%progbits
 891              		.align	2
 892              		.global	getPhotoDiff
 893              		.thumb
 894              		.thumb_func
ARM GAS  C:\Users\student\AppData\Local\Temp\ccHwZbLt.s 			page 28


 895              		.type	getPhotoDiff, %function
 896              	getPhotoDiff:
 897              	.LFB74:
 547:.\main.c      **** 
 548:.\main.c      **** int getPhotoDiff(int currentPhoto, int initPhoto)
 549:.\main.c      **** {
 898              		.loc 1 549 0
 899              		.cfi_startproc
 900              		@ args = 0, pretend = 0, frame = 0
 901              		@ frame_needed = 0, uses_anonymous_args = 0
 902              	.LVL100:
 903 0000 00B5     		push	{lr}
 904              		.cfi_def_cfa_offset 4
 905              		.cfi_offset 14, -4
 550:.\main.c      ****     int scaledCurrentPhoto = (currentPhoto/250) - 7;
 906              		.loc 1 550 0
 907 0002 074B     		ldr	r3, .L69
 908 0004 83FB00E2 		smull	lr, r2, r3, r0
 909 0008 C017     		asrs	r0, r0, #31
 910              	.LVL101:
 911 000a C0EB2210 		rsb	r0, r0, r2, asr #4
 912              	.LVL102:
 551:.\main.c      ****     //if (scaledCurrentPhoto < 0) scaledCurrentPhoto = 0;
 552:.\main.c      ****     //else if (scaledCurrentPhoto > 10) scaledCurrentPhoto = 10;
 553:.\main.c      ****     
 554:.\main.c      ****     int scaledInitPhoto = (initPhoto/250) - 7;
 913              		.loc 1 554 0
 914 000e 83FB0123 		smull	r2, r3, r3, r1
 915 0012 C917     		asrs	r1, r1, #31
 916              	.LVL103:
 917 0014 C1EB2311 		rsb	r1, r1, r3, asr #4
 918              	.LVL104:
 555:.\main.c      ****     return scaledCurrentPhoto - scaledInitPhoto;
 556:.\main.c      **** }
 919              		.loc 1 556 0
 920 0018 401A     		subs	r0, r0, r1
 921              	.LVL105:
 922 001a 5DF804FB 		ldr	pc, [sp], #4
 923              	.L70:
 924 001e 00BF     		.align	2
 925              	.L69:
 926 0020 D34D6210 		.word	274877907
 927              		.cfi_endproc
 928              	.LFE74:
 929              		.size	getPhotoDiff, .-getPhotoDiff
 930              		.section	.text.calcNewPWM,"ax",%progbits
 931              		.align	2
 932              		.global	calcNewPWM
 933              		.thumb
 934              		.thumb_func
 935              		.type	calcNewPWM, %function
 936              	calcNewPWM:
 937              	.LFB75:
 557:.\main.c      **** 
 558:.\main.c      **** /*int getPhotoPWMDiff(int timeAvgPhoto, int currentPWM)
 559:.\main.c      **** {
 560:.\main.c      ****     int scaledPhoto = (timeAvgPhoto/250) - 7;
ARM GAS  C:\Users\student\AppData\Local\Temp\ccHwZbLt.s 			page 29


 561:.\main.c      ****     if (scaledPhoto < 0) scaledPhoto = 0;
 562:.\main.c      ****     else if (scaledPhoto > 10) scaledPhoto = 10;
 563:.\main.c      ****     int scaledPWM = currentPWM - 245;
 564:.\main.c      ****     return scaledPWM - scaledPhoto;
 565:.\main.c      **** }*/
 566:.\main.c      **** 
 567:.\main.c      **** int calcNewPWM(initPWM, currentPhotoDiff)
 568:.\main.c      **** {
 938              		.loc 1 568 0
 939              		.cfi_startproc
 940              		@ args = 0, pretend = 0, frame = 0
 941              		@ frame_needed = 0, uses_anonymous_args = 0
 942              		@ link register save eliminated.
 943              	.LVL106:
 569:.\main.c      ****     ledPWMState = LIGHTING_OFF;     // default led lighting to off
 944              		.loc 1 569 0
 945 0000 0022     		movs	r2, #0
 946 0002 0D4B     		ldr	r3, .L75
 947 0004 9A60     		str	r2, [r3, #8]
 570:.\main.c      ****     
 571:.\main.c      ****     int scaledInitPWM = initPWM - 245;
 948              		.loc 1 571 0
 949 0006 F538     		subs	r0, r0, #245
 950              	.LVL107:
 572:.\main.c      ****     int scaledNewPWM = scaledInitPWM - currentPhotoDiff;
 951              		.loc 1 572 0
 952 0008 411A     		subs	r1, r0, r1
 953              	.LVL108:
 573:.\main.c      ****     int newPWM = scaledNewPWM + 245;
 954              		.loc 1 573 0
 955 000a 01F1F500 		add	r0, r1, #245
 956              	.LVL109:
 574:.\main.c      ****     if (newPWM < 245) newPWM = 245;
 957              		.loc 1 574 0
 958 000e F428     		cmp	r0, #244
 959 0010 10DD     		ble	.L74
 575:.\main.c      ****     else if (newPWM > 255) 
 960              		.loc 1 575 0
 961 0012 FF28     		cmp	r0, #255
 962 0014 0FDD     		ble	.L72
 576:.\main.c      ****     {
 577:.\main.c      ****         // enable LED lighting
 578:.\main.c      ****         ledPWM = (newPWM - 255)*50;
 963              		.loc 1 578 0
 964 0016 0A39     		subs	r1, r1, #10
 965              	.LVL110:
 966 0018 3223     		movs	r3, #50
 967 001a 03FB01F1 		mul	r1, r3, r1
 968              	.LVL111:
 969 001e 064B     		ldr	r3, .L75
 970 0020 D960     		str	r1, [r3, #12]
 579:.\main.c      ****         if (ledPWM > 255) ledPWM = 255;
 971              		.loc 1 579 0
 972 0022 FF29     		cmp	r1, #255
 973 0024 01DD     		ble	.L73
 974              		.loc 1 579 0 is_stmt 0 discriminator 1
 975 0026 FF22     		movs	r2, #255
ARM GAS  C:\Users\student\AppData\Local\Temp\ccHwZbLt.s 			page 30


 976 0028 DA60     		str	r2, [r3, #12]
 977              	.L73:
 580:.\main.c      ****         ledPWMState = LIGHTING_ON;
 978              		.loc 1 580 0 is_stmt 1
 979 002a 0122     		movs	r2, #1
 980 002c 024B     		ldr	r3, .L75
 981 002e 9A60     		str	r2, [r3, #8]
 982              	.LVL112:
 581:.\main.c      ****         
 582:.\main.c      ****         // upper bound motor PWM
 583:.\main.c      ****         newPWM = 255;
 983              		.loc 1 583 0
 984 0030 FF20     		movs	r0, #255
 985              	.LVL113:
 986 0032 7047     		bx	lr
 987              	.LVL114:
 988              	.L74:
 574:.\main.c      ****     else if (newPWM > 255) 
 989              		.loc 1 574 0
 990 0034 F520     		movs	r0, #245
 991              	.LVL115:
 992              	.L72:
 584:.\main.c      ****     }
 585:.\main.c      ****     return newPWM;
 586:.\main.c      **** }
 993              		.loc 1 586 0
 994 0036 7047     		bx	lr
 995              	.L76:
 996              		.align	2
 997              	.L75:
 998 0038 00000000 		.word	.LANCHOR0
 999              		.cfi_endproc
 1000              	.LFE75:
 1001              		.size	calcNewPWM, .-calcNewPWM
 1002              		.global	__aeabi_dcmpge
 1003              		.section	.text.main,"ax",%progbits
 1004              		.align	2
 1005              		.global	main
 1006              		.thumb
 1007              		.thumb_func
 1008              		.type	main, %function
 1009              	main:
 1010              	.LFB65:
 284:.\main.c      ****     // Initialize LCD
 1011              		.loc 1 284 0
 1012              		.cfi_startproc
 1013              		@ args = 0, pretend = 0, frame = 0
 1014              		@ frame_needed = 0, uses_anonymous_args = 0
 1015 0000 10B5     		push	{r4, lr}
 1016              		.cfi_def_cfa_offset 8
 1017              		.cfi_offset 4, -8
 1018              		.cfi_offset 14, -4
 286:.\main.c      **** 	LCD_Char_1_ClearDisplay();
 1019              		.loc 1 286 0
 1020 0002 FFF7FEFF 		bl	LCD_Char_1_Start
 1021              	.LVL116:
 287:.\main.c      ****     LCD_Char_1_PrintString("Photo: ");
ARM GAS  C:\Users\student\AppData\Local\Temp\ccHwZbLt.s 			page 31


 1022              		.loc 1 287 0
 1023 0006 0120     		movs	r0, #1
 1024 0008 FFF7FEFF 		bl	LCD_Char_1_WriteControl
 1025              	.LVL117:
 288:.\main.c      ****     LCD_Char_1_Position(1, 0);
 1026              		.loc 1 288 0
 1027 000c 4048     		ldr	r0, .L86
 1028 000e FFF7FEFF 		bl	LCD_Char_1_PrintString
 1029              	.LVL118:
 289:.\main.c      ****     LCD_Char_1_PrintString("PWM: ");
 1030              		.loc 1 289 0
 1031 0012 0120     		movs	r0, #1
 1032 0014 0021     		movs	r1, #0
 1033 0016 FFF7FEFF 		bl	LCD_Char_1_Position
 1034              	.LVL119:
 290:.\main.c      ****     /*LCD_Char_1_Position(1, 0);
 1035              		.loc 1 290 0
 1036 001a 3E48     		ldr	r0, .L86+4
 1037 001c FFF7FEFF 		bl	LCD_Char_1_PrintString
 1038              	.LVL120:
 295:.\main.c      ****     AMux_1_Start();
 1039              		.loc 1 295 0
 1040 0020 FFF7FEFF 		bl	AMux_1_Start
 1041              	.LVL121:
 296:.\main.c      ****     //AMux_1_Select(0);
 1042              		.loc 1 296 0
 1043 0024 FFF7FEFF 		bl	AMux_1_Start
 1044              	.LVL122:
 298:.\main.c      **** 	ADC_DelSig_1_StartConvert();		// start the ADC_DelSig_1 conversion
 1045              		.loc 1 298 0
 1046 0028 FFF7FEFF 		bl	ADC_DelSig_1_Start
 1047              	.LVL123:
 299:.\main.c      ****     
 1048              		.loc 1 299 0
 1049 002c FFF7FEFF 		bl	ADC_DelSig_1_StartConvert
 1050              	.LVL124:
 304:.\main.c      ****     rx_int_StartEx(RX_INT); 
 1051              		.loc 1 304 0
 1052              	@ 304 ".\main.c" 1
 1053 0030 62B6     		CPSIE   i
 1054              	@ 0 "" 2
 305:.\main.c      ****     timer_int_StartEx(TIMER_INT);
 1055              		.loc 1 305 0
 1056              		.thumb
 1057 0032 3948     		ldr	r0, .L86+8
 1058 0034 FFF7FEFF 		bl	rx_int_StartEx
 1059              	.LVL125:
 306:.\main.c      ****     //tx_int_StartEx(TX_INT);
 1060              		.loc 1 306 0
 1061 0038 3848     		ldr	r0, .L86+12
 1062 003a FFF7FEFF 		bl	timer_int_StartEx
 1063              	.LVL126:
 311:.\main.c      ****     UART_1_ClearRxBuffer();
 1064              		.loc 1 311 0
 1065 003e FFF7FEFF 		bl	UART_1_Start
 1066              	.LVL127:
 312:.\main.c      ****     UART_1_ClearTxBuffer();
ARM GAS  C:\Users\student\AppData\Local\Temp\ccHwZbLt.s 			page 32


 1067              		.loc 1 312 0
 1068 0042 FFF7FEFF 		bl	UART_1_ClearRxBuffer
 1069              	.LVL128:
 313:.\main.c      ****     LED_Write(0);
 1070              		.loc 1 313 0
 1071 0046 FFF7FEFF 		bl	UART_1_ClearTxBuffer
 1072              	.LVL129:
 314:.\main.c      ****     LED_Mode_Write(0);
 1073              		.loc 1 314 0
 1074 004a 0020     		movs	r0, #0
 1075 004c FFF7FEFF 		bl	LED_Write
 1076              	.LVL130:
 315:.\main.c      ****     
 1077              		.loc 1 315 0
 1078 0050 0020     		movs	r0, #0
 1079 0052 FFF7FEFF 		bl	LED_Mode_Write
 1080              	.LVL131:
 318:.\main.c      ****     
 1081              		.loc 1 318 0
 1082 0056 FF20     		movs	r0, #255
 1083 0058 FFF7FEFF 		bl	PWM_1_WritePeriod
 1084              	.LVL132:
 322:.\main.c      ****     ledState = 0;
 1085              		.loc 1 322 0
 1086 005c 0023     		movs	r3, #0
 1087 005e 304A     		ldr	r2, .L86+16
 1088 0060 1360     		str	r3, [r2]
 323:.\main.c      ****     currentPWM = 250;
 1089              		.loc 1 323 0
 1090 0062 304A     		ldr	r2, .L86+20
 1091 0064 1360     		str	r3, [r2]
 324:.\main.c      ****     currentPhoto = 3700;
 1092              		.loc 1 324 0
 1093 0066 FA20     		movs	r0, #250
 1094 0068 2F4B     		ldr	r3, .L86+24
 1095 006a 1870     		strb	r0, [r3]
 325:.\main.c      ****     
 1096              		.loc 1 325 0
 1097 006c 40F67462 		movw	r2, #3700
 1098 0070 2E4B     		ldr	r3, .L86+28
 1099 0072 1A60     		str	r2, [r3]
 328:.\main.c      ****     printPWM();
 1100              		.loc 1 328 0
 1101 0074 FFF7FEFF 		bl	sendPWM
 1102              	.LVL133:
 329:.\main.c      **** 
 1103              		.loc 1 329 0
 1104 0078 FFF7FEFF 		bl	printPWM
 1105              	.LVL134:
 1106              	.L78:
 347:.\main.c      ****         
 1107              		.loc 1 347 0
 1108 007c FFF7FEFF 		bl	getAvgPhotoresistors
 1109              	.LVL135:
 1110 0080 2A4C     		ldr	r4, .L86+28
 1111 0082 2060     		str	r0, [r4]
 350:.\main.c      ****         timeAvgPhoto = averagePhotoBuffer();
ARM GAS  C:\Users\student\AppData\Local\Temp\ccHwZbLt.s 			page 33


 1112              		.loc 1 350 0
 1113 0084 FFF7FEFF 		bl	pushPhotoBuffer
 1114              	.LVL136:
 351:.\main.c      ****         printPhotoresistor(currentPhoto, timeAvgPhoto);
 1115              		.loc 1 351 0
 1116 0088 FFF7FEFF 		bl	averagePhotoBuffer
 1117              	.LVL137:
 1118 008c 0146     		mov	r1, r0
 1119 008e 284B     		ldr	r3, .L86+32
 1120 0090 1860     		str	r0, [r3]
 352:.\main.c      ****         
 1121              		.loc 1 352 0
 1122 0092 2068     		ldr	r0, [r4]
 1123 0094 FFF7FEFF 		bl	printPhotoresistor
 1124              	.LVL138:
 355:.\main.c      ****         {            
 1125              		.loc 1 355 0
 1126 0098 214B     		ldr	r3, .L86+16
 1127 009a 1B68     		ldr	r3, [r3]
 1128 009c 012B     		cmp	r3, #1
 1129 009e 01D0     		beq	.L79
 355:.\main.c      ****         {            
 1130              		.loc 1 355 0 is_stmt 0 discriminator 1
 1131 00a0 032B     		cmp	r3, #3
 1132 00a2 EBD1     		bne	.L78
 1133              	.L79:
 1134              	.LBB6:
 358:.\main.c      ****             if (abs(currentPhotoDiff) >= threshold)
 1135              		.loc 1 358 0 is_stmt 1
 1136 00a4 224B     		ldr	r3, .L86+32
 1137 00a6 1868     		ldr	r0, [r3]
 1138 00a8 224B     		ldr	r3, .L86+36
 1139 00aa 1968     		ldr	r1, [r3]
 1140 00ac FFF7FEFF 		bl	getPhotoDiff
 1141              	.LVL139:
 1142 00b0 0446     		mov	r4, r0
 1143              	.LVL140:
 359:.\main.c      ****             {
 1144              		.loc 1 359 0
 1145 00b2 80EAE070 		eor	r0, r0, r0, asr #31
 1146              	.LVL141:
 1147 00b6 A0EBE470 		sub	r0, r0, r4, asr #31
 1148 00ba FFF7FEFF 		bl	__aeabi_i2d
 1149              	.LVL142:
 1150 00be 0022     		movs	r2, #0
 1151 00c0 0023     		movs	r3, #0
 1152 00c2 FFF7FEFF 		bl	__aeabi_dcmpge
 1153              	.LVL143:
 1154 00c6 D8B1     		cbz	r0, .L81
 361:.\main.c      ****                 currentPWM = calcNewPWM(initPWM, currentPhotoDiff);
 1155              		.loc 1 361 0
 1156 00c8 FFF7FEFF 		bl	LED_Read
 1157              	.LVL144:
 1158 00cc B0FA80F0 		clz	r0, r0
 1159 00d0 4009     		lsrs	r0, r0, #5
 1160 00d2 FFF7FEFF 		bl	LED_Write
 1161              	.LVL145:
ARM GAS  C:\Users\student\AppData\Local\Temp\ccHwZbLt.s 			page 34


 362:.\main.c      ****                 
 1162              		.loc 1 362 0
 1163 00d6 184B     		ldr	r3, .L86+40
 1164 00d8 1868     		ldr	r0, [r3]
 1165 00da 2146     		mov	r1, r4
 1166 00dc FFF7FEFF 		bl	calcNewPWM
 1167              	.LVL146:
 1168 00e0 114B     		ldr	r3, .L86+24
 1169 00e2 1870     		strb	r0, [r3]
 365:.\main.c      ****                 {
 1170              		.loc 1 365 0
 1171 00e4 154B     		ldr	r3, .L86+44
 1172 00e6 9B68     		ldr	r3, [r3, #8]
 1173 00e8 012B     		cmp	r3, #1
 1174 00ea 06D1     		bne	.L83
 367:.\main.c      ****                     PWM_1_Start();
 1175              		.loc 1 367 0
 1176 00ec 134B     		ldr	r3, .L86+44
 1177 00ee 187B     		ldrb	r0, [r3, #12]	@ zero_extendqisi2
 1178 00f0 FFF7FEFF 		bl	PWM_1_WriteCompare
 1179              	.LVL147:
 368:.\main.c      ****                 }
 1180              		.loc 1 368 0
 1181 00f4 FFF7FEFF 		bl	PWM_1_Start
 1182              	.LVL148:
 1183 00f8 02E0     		b	.L81
 1184              	.L83:
 371:.\main.c      ****                 {
 1185              		.loc 1 371 0
 1186 00fa 0BB9     		cbnz	r3, .L81
 373:.\main.c      ****                 }
 1187              		.loc 1 373 0
 1188 00fc FFF7FEFF 		bl	PWM_1_Stop
 1189              	.LVL149:
 1190              	.L81:
 405:.\main.c      ****             sendPWM(currentPWM);
 1191              		.loc 1 405 0
 1192 0100 FFF7FEFF 		bl	printPWM
 1193              	.LVL150:
 406:.\main.c      ****         }
 1194              		.loc 1 406 0
 1195 0104 084B     		ldr	r3, .L86+24
 1196 0106 1878     		ldrb	r0, [r3]	@ zero_extendqisi2
 1197 0108 FFF7FEFF 		bl	sendPWM
 1198              	.LVL151:
 1199 010c B6E7     		b	.L78
 1200              	.L87:
 1201 010e 00BF     		.align	2
 1202              	.L86:
 1203 0110 08000000 		.word	.LC1
 1204 0114 10000000 		.word	.LC2
 1205 0118 00000000 		.word	RX_INT
 1206 011c 00000000 		.word	TIMER_INT
 1207 0120 00000000 		.word	userMode
 1208 0124 00000000 		.word	ledState
 1209 0128 00000000 		.word	currentPWM
 1210 012c 00000000 		.word	currentPhoto
ARM GAS  C:\Users\student\AppData\Local\Temp\ccHwZbLt.s 			page 35


 1211 0130 00000000 		.word	timeAvgPhoto
 1212 0134 00000000 		.word	initPhoto
 1213 0138 00000000 		.word	initPWM
 1214 013c 00000000 		.word	.LANCHOR0
 1215              	.LBE6:
 1216              		.cfi_endproc
 1217              	.LFE65:
 1218              		.size	main, .-main
 1219              		.global	LIGHTING_OFF
 1220              		.global	LIGHTING_ON
 1221              		.global	EVENING
 1222              		.global	AFTERNOON
 1223              		.global	MORNING
 1224              		.global	DAWN
 1225              		.global	TIMED_MODE
 1226              		.global	INIT_TIMED_MODE
 1227              		.global	AUTO_MODE
 1228              		.global	MANUAL_MODE
 1229              		.global	GET_CURRENT_PWM
 1230              		.global	ledPWMState
 1231              		.global	ledPWM
 1232              		.global	timeCounter
 1233              		.global	timeInterval
 1234              		.global	timePrefs
 1235              		.global	timePrefsLength
 1236              		.global	timeMode
 1237              		.comm	photoPWMDiff,4,4
 1238              		.comm	photoBuffer,40,4
 1239              		.global	bufferLength
 1240              		.comm	timeAvgPhoto,4,4
 1241              		.comm	initPhoto,4,4
 1242              		.comm	currentPhoto,4,4
 1243              		.comm	initPWM,4,4
 1244              		.global	receivedPWM
 1245              		.comm	currentPWM,1,1
 1246              		.comm	userMode,4,4
 1247              		.comm	ledState,4,4
 1248              		.section	.rodata
 1249              		.align	2
 1250              		.type	LIGHTING_OFF, %object
 1251              		.size	LIGHTING_OFF, 4
 1252              	LIGHTING_OFF:
 1253 0000 00000000 		.space	4
 1254              		.type	LIGHTING_ON, %object
 1255              		.size	LIGHTING_ON, 4
 1256              	LIGHTING_ON:
 1257 0004 01000000 		.word	1
 1258              		.type	EVENING, %object
 1259              		.size	EVENING, 4
 1260              	EVENING:
 1261 0008 03000000 		.word	3
 1262              		.type	AFTERNOON, %object
 1263              		.size	AFTERNOON, 4
 1264              	AFTERNOON:
 1265 000c 02000000 		.word	2
 1266              		.type	MORNING, %object
 1267              		.size	MORNING, 4
ARM GAS  C:\Users\student\AppData\Local\Temp\ccHwZbLt.s 			page 36


 1268              	MORNING:
 1269 0010 01000000 		.word	1
 1270              		.type	DAWN, %object
 1271              		.size	DAWN, 4
 1272              	DAWN:
 1273 0014 00000000 		.space	4
 1274              		.type	TIMED_MODE, %object
 1275              		.size	TIMED_MODE, 4
 1276              	TIMED_MODE:
 1277 0018 03000000 		.word	3
 1278              		.type	INIT_TIMED_MODE, %object
 1279              		.size	INIT_TIMED_MODE, 4
 1280              	INIT_TIMED_MODE:
 1281 001c 02000000 		.word	2
 1282              		.type	AUTO_MODE, %object
 1283              		.size	AUTO_MODE, 4
 1284              	AUTO_MODE:
 1285 0020 01000000 		.word	1
 1286              		.type	MANUAL_MODE, %object
 1287              		.size	MANUAL_MODE, 4
 1288              	MANUAL_MODE:
 1289 0024 00000000 		.space	4
 1290              		.data
 1291              		.align	2
 1292              		.set	.LANCHOR1,. + 0
 1293              		.type	timeInterval, %object
 1294              		.size	timeInterval, 4
 1295              	timeInterval:
 1296 0000 14000000 		.word	20
 1297              		.type	timePrefs, %object
 1298              		.size	timePrefs, 12
 1299              	timePrefs:
 1300 0004 FF000000 		.word	255
 1301 0008 FA000000 		.word	250
 1302 000c F5000000 		.word	245
 1303              		.type	bufferLength, %object
 1304              		.size	bufferLength, 4
 1305              	bufferLength:
 1306 0010 0A000000 		.word	10
 1307              		.type	GET_CURRENT_PWM, %object
 1308              		.size	GET_CURRENT_PWM, 1
 1309              	GET_CURRENT_PWM:
 1310 0014 01       		.byte	1
 1311 0015 000000   		.space	3
 1312              		.type	timePrefsLength, %object
 1313              		.size	timePrefsLength, 4
 1314              	timePrefsLength:
 1315 0018 03000000 		.word	3
 1316              		.section	.rodata.str1.4,"aMS",%progbits,1
 1317              		.align	2
 1318              	.LC0:
 1319 0000 20202020 		.ascii	"     \000"
 1319      2000
 1320 0006 0000     		.space	2
 1321              	.LC1:
 1322 0008 50686F74 		.ascii	"Photo: \000"
 1322      6F3A2000 
ARM GAS  C:\Users\student\AppData\Local\Temp\ccHwZbLt.s 			page 37


 1323              	.LC2:
 1324 0010 50574D3A 		.ascii	"PWM: \000"
 1324      2000
 1325 0016 0000     		.bss
 1326              		.align	2
 1327              		.set	.LANCHOR0,. + 0
 1328              		.type	timeCounter, %object
 1329              		.size	timeCounter, 4
 1330              	timeCounter:
 1331 0000 00000000 		.space	4
 1332              		.type	timeMode, %object
 1333              		.size	timeMode, 4
 1334              	timeMode:
 1335 0004 00000000 		.space	4
 1336              		.type	ledPWMState, %object
 1337              		.size	ledPWMState, 4
 1338              	ledPWMState:
 1339 0008 00000000 		.space	4
 1340              		.type	ledPWM, %object
 1341              		.size	ledPWM, 4
 1342              	ledPWM:
 1343 000c 00000000 		.space	4
 1344              		.type	receivedPWM, %object
 1345              		.size	receivedPWM, 4
 1346              	receivedPWM:
 1347 0010 00000000 		.space	4
 1348              		.text
 1349              	.Letext0:
 1350              		.file 2 "c:\\program files (x86)\\cypress\\psoc creator\\3.3\\psoc creator\\import\\gnu\\arm\\4.9.
 1351              		.file 3 "c:\\program files (x86)\\cypress\\psoc creator\\3.3\\psoc creator\\import\\gnu\\arm\\4.9.
 1352              		.file 4 "Generated_Source\\PSoC5/cytypes.h"
 1353              		.file 5 "Generated_Source\\PSoC5/core_cm3.h"
 1354              		.file 6 "Generated_Source\\PSoC5/UART_1.h"
 1355              		.file 7 "Generated_Source\\PSoC5/CyLib.h"
 1356              		.file 8 "Generated_Source\\PSoC5/LCD_Char_1.h"
 1357              		.file 9 "Generated_Source\\PSoC5/LED_Mode.h"
 1358              		.file 10 "Generated_Source\\PSoC5/ADC_DelSig_1.h"
 1359              		.file 11 "Generated_Source\\PSoC5/LED.h"
 1360              		.file 12 "Generated_Source\\PSoC5/Timer_1.h"
 1361              		.file 13 "Generated_Source\\PSoC5/AMux_1.h"
 1362              		.file 14 "Generated_Source\\PSoC5/PWM_1.h"
 1363              		.file 15 "Generated_Source\\PSoC5/rx_int.h"
 1364              		.file 16 "Generated_Source\\PSoC5/timer_int.h"
 1365              		.file 17 "<built-in>"